(dp0
cre
_compile
p1
(S'knowledge[.,;:]*'
p2
I2
tp3
Rp4
(dp5
S'categories'
p6
(lp7
S'1'
p8
asS'key'
p9
S'knowledge'
p10
ssg1
(S're-use[.,;:]*'
p11
I2
tp12
Rp13
(dp14
g6
(lp15
S'0'
p16
aS'2'
p17
aS'4'
p18
asg9
S're-use'
p19
ssg1
(S'process[.,;:]*'
p20
I2
tp21
Rp22
(dp23
g6
(lp24
g8
asg9
S'process'
p25
ssg1
(S'lowcarbon[.,;:]*'
p26
I2
tp27
Rp28
(dp29
g6
(lp30
g16
ag17
ag18
asg9
S'lowcarbon'
p31
ssg1
(S"repair[a-z']*[.,;:]*"
p32
I2
tp33
Rp34
(dp35
g6
(lp36
g16
asg9
S'repair*'
p37
ssg1
(S"co-validation[a-z']*[.,;:]*"
p38
I2
tp39
Rp40
(dp41
g6
(lp42
g8
asg9
S'co-validation*'
p43
ssg1
(S'durability[.,;:]*'
p44
I2
tp45
Rp46
(dp47
g6
(lp48
g16
asg9
S'durability'
p49
ssg1
(S"functional[a-z']*[.,;:]*"
p50
I2
tp51
Rp52
(dp53
g6
(lp54
g8
asg9
S'functional*'
p55
ssg1
(S'finance[.,;:]*'
p56
I2
tp57
Rp58
(dp59
g6
(lp60
S'3'
p61
asg9
S'finance'
p62
ssg1
(S"climate[a-z']*[.,;:]*"
p63
I2
tp64
Rp65
(dp66
g6
(lp67
g16
ag17
asg9
S'climate*'
p68
ssg1
(S'reuse[.,;:]*'
p69
I2
tp70
Rp71
(dp72
g6
(lp73
g16
asg9
S'reuse'
p74
ssg1
(S'technology[.,;:]*'
p75
I2
tp76
Rp77
(dp78
g6
(lp79
g8
asg9
S'technology'
p80
ssg1
(S'fintech[.,;:]*'
p81
I2
tp82
Rp83
(dp84
g6
(lp85
g8
ag61
asg9
S'fintech'
p86
ssg1
(S'user-driven[.,;:]*'
p87
I2
tp88
Rp89
(dp90
g6
(lp91
g16
asg9
S'user-driven'
p92
ssg1
(S"idea[a-z']*[.,;:]*"
p93
I2
tp94
Rp95
(dp96
g6
(lp97
g8
asg9
S'idea*'
p98
ssg1
(S'co-funding[.,;:]*'
p99
I2
tp100
Rp101
(dp102
g6
(lp103
g8
ag61
asg9
S'co-funding'
p104
ssg1
(S'sustainability[.,;:]*'
p105
I2
tp106
Rp107
(dp108
g6
(lp109
g16
ag18
asg9
S'sustainability'
p110
ssg1
(S'social[.,;:]*'
p111
I2
tp112
Rp113
(dp114
g6
(lp115
g16
ag18
asg9
S'social'
p116
ssg1
(S"creat[a-z']*[.,;:]*"
p117
I2
tp118
Rp119
(dp120
g6
(lp121
g8
asg9
S'creat*'
p122
ssg1
(S"nature[a-z']*[.,;:]*"
p123
I2
tp124
Rp125
(dp126
g6
(lp127
g16
ag17
asg9
S'nature*'
p128
ssg1
(S'planet[.,;:]*'
p129
I2
tp130
Rp131
(dp132
g6
(lp133
g16
ag17
asg9
S'planet'
p134
ssg1
(S'progress[.,;:]*'
p135
I2
tp136
Rp137
(dp138
g6
(lp139
g8
asg9
S'progress'
p140
ssg1
(S"tool[a-z']*[.,;:]*"
p141
I2
tp142
Rp143
(dp144
g6
(lp145
g8
asg9
S'tool*'
p146
ssg1
(S"environment[a-z']*[.,;:]*"
p147
I2
tp148
Rp149
(dp150
g6
(lp151
g16
ag17
asg9
S'environment*'
p152
ssg1
(S"repurpose[a-z']*[.,;:]*"
p153
I2
tp154
Rp155
(dp156
g6
(lp157
g16
asg9
S'repurpose*'
p158
ssg1
(S"recycl[a-z']*[.,;:]*"
p159
I2
tp160
Rp161
(dp162
g6
(lp163
g16
ag17
ag18
asg9
S'recycl*'
p164
ssg1
(S"innovation[a-z']*[.,;:]*"
p165
I2
tp166
Rp167
(dp168
g6
(lp169
g8
asg9
S'innovation*'
p170
ssg1
(S"invent[a-z']*[.,;:]*"
p171
I2
tp172
Rp173
(dp174
g6
(lp175
g8
asg9
S'invent*'
p176
ssg1
(S"green[a-z']*[.,;:]*"
p177
I2
tp178
Rp179
(dp180
g6
(lp181
g16
ag17
asg9
S'green*'
p182
ssg1
(S'climate[.,;:]*'
p183
I2
tp184
Rp185
(dp186
g6
(lp187
g16
ag17
asg9
S'climate'
p188
ssg1
(S"sustainab[a-z']*[.,;:]*"
p189
I2
tp190
Rp191
(dp192
g6
(lp193
g16
ag17
ag18
asg9
S'sustainab*'
p194
ssg1
(S"re-cycl[a-z']*[.,;:]*"
p195
I2
tp196
Rp197
(dp198
g6
(lp199
g16
ag17
ag18
asg9
S're-cycl*'
p200
ssg1
(S'local[.,;:]*'
p201
I2
tp202
Rp203
(dp204
g6
(lp205
g16
asg9
S'local'
p206
ssg1
(S"co-delivery[a-z']*[.,;:]*"
p207
I2
tp208
Rp209
(dp210
g6
(lp211
g16
ag8
asg9
S'co-delivery*'
p212
ss.