(dp0
cre
_compile
p1
(S'technical\\s+cause[.,;:]*'
p2
I2
tp3
Rp4
(dp5
S'categories'
p6
(lp7
S'1'
p8
asS'key'
p9
S'technical cause'
p10
ssg1
(S"self\\s+sufficien[a-z']*[.,;:]*"
p11
I2
tp12
Rp13
(dp14
g6
(lp15
S'0'
p16
asg9
S'self sufficien*'
p17
ssg1
(S'impact\\s+finance[.,;:]*'
p18
I2
tp19
Rp20
(dp21
g6
(lp22
g16
aS'3'
p23
aS'4'
p24
asg9
S'impact finance'
p25
ssg1
(S'climate\\s+change[.,;:]*'
p26
I2
tp27
Rp28
(dp29
g6
(lp30
g16
aS'2'
p31
asg9
S'climate change'
p32
ssg1
(S"social\\s+impact[a-z']*[.,;:]*"
p33
I2
tp34
Rp35
(dp36
g6
(lp37
g16
ag24
asg9
S'social impact*'
p38
ssg1
(S'climate\\s+finance[.,;:]*'
p39
I2
tp40
Rp41
(dp42
g6
(lp43
g16
ag31
ag23
asg9
S'climate finance'
p44
ssg1
(S"social\\s+cause[a-z']*[.,;:]*"
p45
I2
tp46
Rp47
(dp48
g6
(lp49
g16
ag24
asg9
S'social cause*'
p50
ssg1
(S'circular\\s+economy[.,;:]*'
p51
I2
tp52
Rp53
(dp54
g6
(lp55
g16
ag8
ag31
ag23
ag24
asg9
S'circular economy'
p56
ssg1
(S'environmental\\s+cause[.,;:]*'
p57
I2
tp58
Rp59
(dp60
g6
(lp61
g16
ag31
asg9
S'environmental cause'
p62
ssg1
(S'social\\s+responsibility[.,;:]*'
p63
I2
tp64
Rp65
(dp66
g6
(lp67
g16
ag24
asg9
S'social responsibility'
p68
ssg1
(S'network-based\\s+society[.,;:]*'
p69
I2
tp70
Rp71
(dp72
g6
(lp73
g16
ag8
ag24
asg9
S'network-based society '
p74
ssg1
(S'no\\s+waste[.,;:]*'
p75
I2
tp76
Rp77
(dp78
g6
(lp79
g16
ag31
asg9
S'no waste'
p80
ssg1
(S"social\\s+relation[a-z']*[.,;:]*"
p81
I2
tp82
Rp83
(dp84
g6
(lp85
g16
ag24
asg9
S'social relation*'
p86
ssg1
(S'green\\s+finance[.,;:]*'
p87
I2
tp88
Rp89
(dp90
g6
(lp91
g16
ag31
ag23
ag24
asg9
S'green finance'
p92
ss.