(dp0
S'FinanceHighED'
p1
(dp2
S'scores'
p3
(dp4
S'1'
p5
(dp6
S'per_word'
p7
F0.0012875536480686696
sS'raw'
p8
F3.0
sS'per_tweet'
p9
F0.015873015873015872
ssS'0'
p10
(dp11
g7
F0.002575107296137339
sg8
F6.0
sg9
F0.031746031746031744
ssS'all'
p12
(dp13
g7
F0.0068669527896995704
sg8
F16.0
sg9
F0.08465608465608465
ssS'2'
p14
(dp15
g7
F0.00042918454935622315
sg8
F1.0
sg9
F0.005291005291005291
ssS'4'
p16
(dp17
g7
F0.002575107296137339
sg8
F6.0
sg9
F0.031746031746031744
sssS'source'
p18
I0
sS'ntweets'
p19
I189
sS'nmappings'
p20
I16
sS'nwords'
p21
I2330
ssS'Gianlucamisu'
p22
(dp23
g3
(dp24
g5
(dp25
g7
F0.00625
sg8
F21.0
sg9
F0.12352941176470589
ssg10
(dp26
g7
F0.0026785714285714286
sg8
F9.0
sg9
F0.052941176470588235
ssS'3'
p27
(dp28
g7
F0.0008928571428571428
sg8
F3.0
sg9
F0.01764705882352941
ssg14
(dp29
g7
F0.00029761904761904765
sg8
F1.0
sg9
F0.0058823529411764705
ssg16
(dp30
g7
F0.002380952380952381
sg8
F8.0
sg9
F0.047058823529411764
ssg12
(dp31
g7
F0.0125
sg8
F42.0
sg9
F0.24705882352941178
sssg18
I0
sg19
I170
sg20
I42
sg21
I3360
ssS'PhillipNunnUK'
p32
(dp33
g3
(dp34
g5
(dp35
g7
F0.0032777115613825984
sg8
F11.0
sg9
F0.05555555555555555
ssg10
(dp36
g7
F0.0002979737783075089
sg8
F1.0
sg9
F0.005050505050505051
ssg27
(dp37
g7
F0.0011918951132300357
sg8
F4.0
sg9
F0.020202020202020204
ssg14
(dp38
g7
F0.0002979737783075089
sg8
F1.0
sg9
F0.005050505050505051
ssg12
(dp39
g7
F0.005065554231227652
sg8
F17.0
sg9
F0.08585858585858586
sssg18
I0
sg19
I198
sg20
I17
sg21
I3356
ssS'roy_geniuslead'
p40
(dp41
g3
(dp42
g5
(dp43
g7
F0.0048484848484848485
sg8
F16.0
sg9
F0.08040201005025126
ssg10
(dp44
g7
F0.0030303030303030303
sg8
F10.0
sg9
F0.05025125628140704
ssg12
(dp45
g7
F0.011515151515151515
sg8
F38.0
sg9
F0.19095477386934673
ssg14
(dp46
g7
F0.0027272727272727275
sg8
F9.0
sg9
F0.04522613065326633
ssg16
(dp47
g7
F0.0009090909090909091
sg8
F3.0
sg9
F0.01507537688442211
sssg18
I0
sg19
I199
sg20
I38
sg21
I3300
ssS'r0guetrainer'
p48
(dp49
g3
(dp50
g5
(dp51
g7
F0.0047430830039525695
sg8
F18.0
sg9
F0.09137055837563451
ssg10
(dp52
g7
F0.004216073781291172
sg8
F16.0
sg9
F0.08121827411167512
ssg27
(dp53
g7
F0.0005270092226613965
sg8
F2.0
sg9
F0.01015228426395939
ssg14
(dp54
g7
F0.003689064558629776
sg8
F14.0
sg9
F0.07106598984771574
ssg16
(dp55
g7
F0.00026350461133069827
sg8
F1.0
sg9
F0.005076142131979695
ssg12
(dp56
g7
F0.013438735177865613
sg8
F51.0
sg9
F0.25888324873096447
sssg18
I0
sg19
I197
sg20
I51
sg21
I3795
ssS'Paorazio'
p57
(dp58
g3
(dp59
g5
(dp60
g7
F0.0013192612137203166
sg8
F2.0
sg9
F0.018018018018018018
ssg10
(dp61
g7
F0.009234828496042216
sg8
F14.0
sg9
F0.12612612612612611
ssg12
(dp62
g7
F0.01978891820580475
sg8
F30.0
sg9
F0.2702702702702703
ssg14
(dp63
g7
F0.008575197889182058
sg8
F13.0
sg9
F0.11711711711711711
ssg16
(dp64
g7
F0.0006596306068601583
sg8
F1.0
sg9
F0.009009009009009009
sssg18
I0
sg19
I111
sg20
I30
sg21
I1516
ssS'PubAffairsEU'
p65
(dp66
g3
(dp67
g5
(dp68
g7
F0.00032615786040443573
sg8
F1.0
sg9
F0.005050505050505051
ssg10
(dp69
g7
F0.0019569471624266144
sg8
F6.0
sg9
F0.030303030303030304
ssg27
(dp70
g7
F0.0009784735812133072
sg8
F3.0
sg9
F0.015151515151515152
ssg14
(dp71
g7
F0.0009784735812133072
sg8
F3.0
sg9
F0.015151515151515152
ssg16
(dp72
g7
F0.00032615786040443573
sg8
F1.0
sg9
F0.005050505050505051
ssg12
(dp73
g7
F0.0045662100456621
sg8
F14.0
sg9
F0.0707070707070707
sssg18
I0
sg19
I198
sg20
I14
sg21
I3066
ssS'James_Vaccaro'
p74
(dp75
g3
(dp76
g5
(dp77
g7
F0.0024775472282440383
sg8
F8.0
sg9
F0.04020100502512563
ssg10
(dp78
g7
F0.02322700526478786
sg8
F75.0
sg9
F0.3768844221105528
ssg27
(dp79
g7
F0.006503561474140601
sg8
F21.0
sg9
F0.10552763819095477
ssg14
(dp80
g7
F0.02136884484360483
sg8
F69.0
sg9
F0.34673366834170855
ssg16
(dp81
g7
F0.006503561474140601
sg8
F21.0
sg9
F0.10552763819095477
ssg12
(dp82
g7
F0.06008052028491793
sg8
F194.0
sg9
F0.9748743718592965
sssg18
I0
sg19
I199
sg20
I194
sg21
I3229
ssS'ByGeorgePerr'
p83
(dp84
g3
(dp85
g5
(dp86
g7
F0.0017406440382941688
sg8
F4.0
sg9
F0.027586206896551724
ssg10
(dp87
g7
F0.0004351610095735422
sg8
F1.0
sg9
F0.006896551724137931
ssg12
(dp88
g7
F0.0026109660574412533
sg8
F6.0
sg9
F0.041379310344827586
ssg14
(dp89
g7
F0.0004351610095735422
sg8
F1.0
sg9
F0.006896551724137931
sssg18
I0
sg19
I145
sg20
I6
sg21
I2298
ssS'globalromance16'
p90
(dp91
g3
(dp92
g12
(dp93
g7
F0.0
sg8
F0.0
sg9
F0.0
sssg18
I0
sg19
I136
sg20
I0
sg21
I1366
ssS'netsci15'
p94
(dp95
g3
(dp96
g5
(dp97
g7
F0.0013430029546065002
sg8
F5.0
sg9
F0.02512562814070352
ssg10
(dp98
g7
F0.006177813591189901
sg8
F23.0
sg9
F0.11557788944723618
ssg27
(dp99
g7
F0.0010744023636852001
sg8
F4.0
sg9
F0.020100502512562814
ssg14
(dp100
g7
F0.0021488047273704003
sg8
F8.0
sg9
F0.04020100502512563
ssg16
(dp101
g7
F0.0051034112275047
sg8
F19.0
sg9
F0.09547738693467336
ssg12
(dp102
g7
F0.0158474348643567
sg8
F59.0
sg9
F0.2964824120603015
sssg18
I0
sg19
I199
sg20
I59
sg21
I3723
ssS'ailatan1898'
p103
(dp104
g3
(dp105
g12
(dp106
g7
F0.0
sg8
F0.0
sg9
F0.0
sssg18
I0
sg19
I6
sg20
I0
sg21
I83
ssS'MolinariMax_'
p107
(dp108
S'source'
p109
I0
sS'ntweets'
p110
I132
sS'nwords'
p111
I1498
sS'nmappings'
p112
I13
sS'scores'
p113
(dp114
S'1'
p115
(dp116
S'per_word'
p117
F0.0013351134846461949
sS'raw'
p118
F2.0
sS'per_tweet'
p119
F0.015151515151515152
ssS'0'
p120
(dp121
g117
F0.0033377837116154874
sg118
F5.0
sg119
F0.03787878787878788
ssS'3'
p122
(dp123
g117
F0.0006675567423230974
sg118
F1.0
sg119
F0.007575757575757576
ssS'2'
p124
(dp125
g117
F0.0033377837116154874
sg118
F5.0
sg119
F0.03787878787878788
ssS'all'
p126
(dp127
g117
F0.008678237650200267
sg118
F13.0
sg119
F0.09848484848484848
ssssS'KimMarln'
p128
(dp129
g3
(dp130
g5
(dp131
g7
F0.007097232079488999
sg8
F10.0
sg9
F0.12048192771084337
ssg10
(dp132
g7
F0.0035486160397444995
sg8
F5.0
sg9
F0.060240963855421686
ssg12
(dp133
g7
F0.014194464158977998
sg8
F20.0
sg9
F0.24096385542168675
ssg14
(dp134
g7
F0.0014194464158978
sg8
F2.0
sg9
F0.024096385542168676
ssg16
(dp135
g7
F0.0021291696238466998
sg8
F3.0
sg9
F0.03614457831325301
sssg18
I0
sg19
I83
sg20
I20
sg21
I1409
ssS'FETFX_EU'
p136
(dp137
g3
(dp138
g5
(dp139
g7
F0.006133177570093458
sg8
F21.0
sg9
F0.1065989847715736
ssg10
(dp140
g7
F0.0029205607476635513
sg8
F10.0
sg9
F0.050761421319796954
ssg12
(dp141
g7
F0.011682242990654205
sg8
F40.0
sg9
F0.20304568527918782
ssg14
(dp142
g7
F0.0020443925233644858
sg8
F7.0
sg9
F0.03553299492385787
ssg16
(dp143
g7
F0.0005841121495327102
sg8
F2.0
sg9
F0.01015228426395939
sssg18
I0
sg19
I197
sg20
I40
sg21
I3424
ssS'Blueland1'
p144
(dp145
g3
(dp146
g5
(dp147
g7
F0.0008329862557267805
sg8
F2.0
sg9
F0.010362694300518135
ssg10
(dp148
g7
F0.11745106205747605
sg8
F282.0
sg9
F1.461139896373057
ssg27
(dp149
g7
F0.0008329862557267805
sg8
F2.0
sg9
F0.010362694300518135
ssg14
(dp150
g7
F0.11703456892961266
sg8
F281.0
sg9
F1.455958549222798
ssg16
(dp151
g7
F0.0008329862557267805
sg8
F2.0
sg9
F0.010362694300518135
ssg12
(dp152
g7
F0.23698458975426906
sg8
F569.0
sg9
F2.948186528497409
sssg18
I0
sg19
I193
sg20
I569
sg21
I2401
ssS'Concerns_You'
p153
(dp154
g3
(dp155
g5
(dp156
g7
F0.0012300123001230013
sg8
F5.0
sg9
F0.025
ssg10
(dp157
g7
F0.0004920049200492004
sg8
F2.0
sg9
F0.01
ssg12
(dp158
g7
F0.002214022140221402
sg8
F9.0
sg9
F0.045
ssg14
(dp159
g7
F0.0004920049200492004
sg8
F2.0
sg9
F0.01
sssg18
I0
sg19
I200
sg20
I9
sg21
I4065
ssS'RFIFoundation'
p160
(dp161
g3
(dp162
g5
(dp163
g7
F0.005832793259883344
sg8
F18.0
sg9
F0.09375
ssg10
(dp164
g7
F0.020414776409591703
sg8
F63.0
sg9
F0.328125
ssg27
(dp165
g7
F0.01101749837977965
sg8
F34.0
sg9
F0.17708333333333334
ssg14
(dp166
g7
F0.013609850939727802
sg8
F42.0
sg9
F0.21875
ssg16
(dp167
g7
F0.009397278029812054
sg8
F29.0
sg9
F0.15104166666666666
ssg12
(dp168
g7
F0.060272197018794556
sg8
F186.0
sg9
F0.96875
sssg18
I0
sg19
I192
sg20
I186
sg21
I3086
ssS'Lsuttors'
p169
(dp170
g3
(dp171
g5
(dp172
g7
F0.005097312326227989
sg8
F11.0
sg9
F0.09821428571428571
ssg10
(dp173
g7
F0.012048192771084338
sg8
F26.0
sg9
F0.23214285714285715
ssg27
(dp174
g7
F0.006024096385542169
sg8
F13.0
sg9
F0.11607142857142858
ssg14
(dp175
g7
F0.012048192771084338
sg8
F26.0
sg9
F0.23214285714285715
ssg16
(dp176
g7
F0.0018535681186283596
sg8
F4.0
sg9
F0.03571428571428571
ssg12
(dp177
g7
F0.03707136237256719
sg8
F80.0
sg9
F0.7142857142857143
sssg18
I0
sg19
I112
sg20
I80
sg21
I2158
ssS'VivereLanzarote'
p178
(dp179
g3
(dp180
g12
(dp181
g7
F0.0
sg8
F0.0
sg9
F0.0
sssg18
I0
sg19
I14
sg20
I0
sg21
I160
ssS'emacampiglio'
p182
(dp183
g3
(dp184
g5
(dp185
g7
F0.0006988120195667365
sg8
F2.0
sg9
F0.011834319526627219
ssg10
(dp186
g7
F0.03843466107617051
sg8
F110.0
sg9
F0.650887573964497
ssg27
(dp187
g7
F0.010831586303284416
sg8
F31.0
sg9
F0.1834319526627219
ssg14
(dp188
g7
F0.037037037037037035
sg8
F106.0
sg9
F0.6272189349112426
ssg16
(dp189
g7
F0.0069881201956673656
sg8
F20.0
sg9
F0.11834319526627218
ssg12
(dp190
g7
F0.09399021663172606
sg8
F269.0
sg9
F1.5917159763313609
sssg18
I0
sg19
I169
sg20
I269
sg21
I2862
ssS'CocavicColavic'
p191
(dp192
g3
(dp193
g5
(dp194
g7
F0.0011723329425556857
sg8
F1.0
sg9
F0.02
ssg10
(dp195
g7
F0.0023446658851113715
sg8
F2.0
sg9
F0.04
ssg12
(dp196
g7
F0.005861664712778429
sg8
F5.0
sg9
F0.1
ssg14
(dp197
g7
F0.0023446658851113715
sg8
F2.0
sg9
F0.04
sssg18
I0
sg19
I50
sg20
I5
sg21
I853
ssS'WOETUK'
p198
(dp199
g3
(dp200
g5
(dp201
g7
F0.02
sg8
F6.0
sg9
F0.2727272727272727
ssg10
(dp202
g7
F0.0033333333333333335
sg8
F1.0
sg9
F0.045454545454545456
ssg12
(dp203
g7
F0.03
sg8
F9.0
sg9
F0.4090909090909091
ssg14
(dp204
g7
F0.0033333333333333335
sg8
F1.0
sg9
F0.045454545454545456
ssg16
(dp205
g7
F0.0033333333333333335
sg8
F1.0
sg9
F0.045454545454545456
sssg18
I0
sg19
I22
sg20
I9
sg21
I300
ssS'takis_kt'
p206
(dp207
g3
(dp208
g5
(dp209
g7
F0.005053507728894174
sg8
F17.0
sg9
F0.096045197740113
ssg10
(dp210
g7
F0.0044589774078478
sg8
F15.0
sg9
F0.0847457627118644
ssg12
(dp211
g7
F0.014863258026159334
sg8
F50.0
sg9
F0.2824858757062147
ssg14
(dp212
g7
F0.0032699167657550534
sg8
F11.0
sg9
F0.062146892655367235
ssg16
(dp213
g7
F0.002080856123662307
sg8
F7.0
sg9
F0.03954802259887006
sssg18
I0
sg19
I177
sg20
I50
sg21
I3364
ssS'OneClickSolar'
p214
(dp215
g3
(dp216
g5
(dp217
g7
F0.0006915629322268327
sg8
F2.0
sg9
F0.011049723756906077
ssg10
(dp218
g7
F0.001037344398340249
sg8
F3.0
sg9
F0.016574585635359115
ssg27
(dp219
g7
F0.00034578146611341634
sg8
F1.0
sg9
F0.0055248618784530384
ssg14
(dp220
g7
F0.0006915629322268327
sg8
F2.0
sg9
F0.011049723756906077
ssg16
(dp221
g7
F0.0006915629322268327
sg8
F2.0
sg9
F0.011049723756906077
ssg12
(dp222
g7
F0.003457814661134163
sg8
F10.0
sg9
F0.055248618784530384
sssg18
I0
sg19
I181
sg20
I10
sg21
I2892
ssS'joostmulder'
p223
(dp224
g3
(dp225
g5
(dp226
g7
F0.002682563338301043
sg8
F9.0
sg9
F0.058823529411764705
ssg10
(dp227
g7
F0.005961251862891207
sg8
F20.0
sg9
F0.13071895424836602
ssg27
(dp228
g7
F0.004172876304023845
sg8
F14.0
sg9
F0.0915032679738562
ssg14
(dp229
g7
F0.005961251862891207
sg8
F20.0
sg9
F0.13071895424836602
ssg16
(dp230
g7
F0.0011922503725782414
sg8
F4.0
sg9
F0.026143790849673203
ssg12
(dp231
g7
F0.019970193740685545
sg8
F67.0
sg9
F0.43790849673202614
sssg18
I0
sg19
I153
sg20
I67
sg21
I3355
ssS'flipparini'
p232
(dp233
g3
(dp234
g5
(dp235
g7
F0.00891583452211127
sg8
F25.0
sg9
F0.15625
ssg10
(dp236
g7
F0.015335235378031383
sg8
F43.0
sg9
F0.26875
ssg27
(dp237
g7
F0.0007132667617689016
sg8
F2.0
sg9
F0.0125
ssg14
(dp238
g7
F0.0010699001426533524
sg8
F3.0
sg9
F0.01875
ssg16
(dp239
g7
F0.014265335235378032
sg8
F40.0
sg9
F0.25
ssg12
(dp240
g7
F0.04029957203994294
sg8
F113.0
sg9
F0.70625
sssg18
I0
sg19
I160
sg20
I113
sg21
I2804
ssS'Oleatopia'
p241
(dp242
g3
(dp243
g5
(dp244
g7
F0.0014619883040935672
sg8
F1.0
sg9
F0.017543859649122806
ssg10
(dp245
g7
F0.0014619883040935672
sg8
F1.0
sg9
F0.017543859649122806
ssg12
(dp246
g7
F0.0043859649122807015
sg8
F3.0
sg9
F0.05263157894736842
ssg14
(dp247
g7
F0.0014619883040935672
sg8
F1.0
sg9
F0.017543859649122806
sssg18
I0
sg19
I57
sg20
I3
sg21
I684
ssS'CardanoStiftung'
p248
(dp249
g3
(dp250
g5
(dp251
g7
F0.0010893246187363835
sg8
F4.0
sg9
F0.021164021164021163
ssg12
(dp252
g7
F0.0010893246187363835
sg8
F4.0
sg9
F0.021164021164021163
sssg18
I0
sg19
I189
sg20
I4
sg21
I3672
ssS'Elcada_GmbH'
p253
(dp254
g3
(dp255
g12
(dp256
g7
F0.0
sg8
F0.0
sg9
F0.0
sssg18
I0
sg19
I12
sg20
I0
sg21
I205
ssS'CGraciaLazaro'
p257
(dp258
g3
(dp259
g5
(dp260
g7
F0.0004161464835622139
sg8
F1.0
sg9
F0.007142857142857143
ssg10
(dp261
g7
F0.006242197253433208
sg8
F15.0
sg9
F0.10714285714285714
ssg12
(dp262
g7
F0.011235955056179775
sg8
F27.0
sg9
F0.19285714285714287
ssg14
(dp263
g7
F0.0008322929671244278
sg8
F2.0
sg9
F0.014285714285714285
ssg16
(dp264
g7
F0.003745318352059925
sg8
F9.0
sg9
F0.06428571428571428
sssg18
I0
sg19
I140
sg20
I27
sg21
I2403
ssS'SimonThordal'
p265
(dp266
g3
(dp267
g5
(dp268
g7
F0.0023752969121140144
sg8
F1.0
sg9
F0.041666666666666664
ssg10
(dp269
g7
F0.0023752969121140144
sg8
F1.0
sg9
F0.041666666666666664
ssg12
(dp270
g7
F0.007125890736342043
sg8
F3.0
sg9
F0.125
ssg16
(dp271
g7
F0.0023752969121140144
sg8
F1.0
sg9
F0.041666666666666664
sssg18
I0
sg19
I24
sg20
I3
sg21
I421
ssS'FinforTomorrow'
p272
(dp273
g3
(dp274
g5
(dp275
g7
F0.00035435861091424523
sg8
F1.0
sg9
F0.007751937984496124
ssg10
(dp276
g7
F0.0336640680368533
sg8
F95.0
sg9
F0.7364341085271318
ssg27
(dp277
g7
F0.010985116938341602
sg8
F31.0
sg9
F0.24031007751937986
ssg14
(dp278
g7
F0.030120481927710843
sg8
F85.0
sg9
F0.6589147286821705
ssg16
(dp279
g7
F0.011693834160170093
sg8
F33.0
sg9
F0.2558139534883721
ssg12
(dp280
g7
F0.08681785967399008
sg8
F245.0
sg9
F1.8992248062015504
sssg18
I0
sg19
I129
sg20
I245
sg21
I2822
ssS'JeromeRoch74'
p281
(dp282
g3
(dp283
g5
(dp284
g7
F0.0013717421124828531
sg8
F1.0
sg9
F0.024390243902439025
ssg10
(dp285
g7
F0.02880658436213992
sg8
F21.0
sg9
F0.5121951219512195
ssg12
(dp286
g7
F0.06035665294924554
sg8
F44.0
sg9
F1.0731707317073171
ssg14
(dp287
g7
F0.02880658436213992
sg8
F21.0
sg9
F0.5121951219512195
ssg16
(dp288
g7
F0.0013717421124828531
sg8
F1.0
sg9
F0.024390243902439025
sssg18
I0
sg19
I41
sg20
I44
sg21
I729
ssS'LERUnews'
p289
(dp290
g3
(dp291
g5
(dp292
g7
F0.00699663125161959
sg8
F27.0
sg9
F0.13846153846153847
ssg10
(dp293
g7
F0.0010365379632029023
sg8
F4.0
sg9
F0.020512820512820513
ssg12
(dp294
g7
F0.009069707178025395
sg8
F35.0
sg9
F0.1794871794871795
ssg14
(dp295
g7
F0.0007774034724021767
sg8
F3.0
sg9
F0.015384615384615385
ssg16
(dp296
g7
F0.0002591344908007256
sg8
F1.0
sg9
F0.005128205128205128
sssg18
I0
sg19
I195
sg20
I35
sg21
I3859
ssS'WJFTechnical'
p297
(dp298
g3
(dp299
g5
(dp300
g7
F0.0013189132155104195
sg8
F5.0
sg9
F0.025510204081632654
ssg10
(dp301
g7
F0.0015826958586125032
sg8
F6.0
sg9
F0.030612244897959183
ssg12
(dp302
g7
F0.004484304932735426
sg8
F17.0
sg9
F0.08673469387755102
ssg14
(dp303
g7
F0.0015826958586125032
sg8
F6.0
sg9
F0.030612244897959183
sssg18
I0
sg19
I196
sg20
I17
sg21
I3791
ssS'su_re_co'
p304
(dp305
g3
(dp306
g5
(dp307
g7
F0.003561887800534283
sg8
F12.0
sg9
F0.061855670103092786
ssg10
(dp308
g7
F0.024636390620362124
sg8
F83.0
sg9
F0.42783505154639173
ssg27
(dp309
g7
F0.00029682398337785694
sg8
F1.0
sg9
F0.005154639175257732
ssg14
(dp310
g7
F0.022558622736717125
sg8
F76.0
sg9
F0.3917525773195876
ssg16
(dp311
g7
F0.004155535767289997
sg8
F14.0
sg9
F0.07216494845360824
ssg12
(dp312
g7
F0.05520926090828139
sg8
F186.0
sg9
F0.9587628865979382
sssg18
I0
sg19
I194
sg20
I186
sg21
I3369
ssS'greenblut_kris'
p313
(dp314
g3
(dp315
g5
(dp316
g7
F0.016751269035532996
sg8
F33.0
sg9
F0.20245398773006135
ssg10
(dp317
g7
F0.030964467005076143
sg8
F61.0
sg9
F0.37423312883435583
ssg12
(dp318
g7
F0.08883248730964467
sg8
F175.0
sg9
F1.0736196319018405
ssg14
(dp319
g7
F0.027918781725888325
sg8
F55.0
sg9
F0.3374233128834356
ssg16
(dp320
g7
F0.013197969543147208
sg8
F26.0
sg9
F0.15950920245398773
sssg18
I0
sg19
I163
sg20
I175
sg21
I1970
ssS'dsuker'
p321
(dp322
g3
(dp323
g12
(dp324
g7
F0.0
sg8
F0.0
sg9
F0.0
sssg18
I0
sg19
I19
sg20
I0
sg21
I333
ssS'cosnet_bifi'
p325
(dp326
g3
(dp327
g5
(dp328
g7
F0.001375894331315355
sg8
F5.0
sg9
F0.02564102564102564
ssg10
(dp329
g7
F0.005778756191524491
sg8
F21.0
sg9
F0.1076923076923077
ssg27
(dp330
g7
F0.000275178866263071
sg8
F1.0
sg9
F0.005128205128205128
ssg14
(dp331
g7
F0.003026967528893781
sg8
F11.0
sg9
F0.05641025641025641
ssg16
(dp332
g7
F0.003302146395156852
sg8
F12.0
sg9
F0.06153846153846154
ssg12
(dp333
g7
F0.01375894331315355
sg8
F50.0
sg9
F0.2564102564102564
sssg18
I0
sg19
I195
sg20
I50
sg21
I3634
ssS'AlbertoMunoz'
p334
(dp335
g3
(dp336
g5
(dp337
g7
F0.004072398190045249
sg8
F9.0
sg9
F0.07317073170731707
ssg10
(dp338
g7
F0.0009049773755656109
sg8
F2.0
sg9
F0.016260162601626018
ssg27
(dp339
g7
F0.0009049773755656109
sg8
F2.0
sg9
F0.016260162601626018
ssg14
(dp340
g7
F0.0009049773755656109
sg8
F2.0
sg9
F0.016260162601626018
ssg12
(dp341
g7
F0.006787330316742082
sg8
F15.0
sg9
F0.12195121951219512
sssg18
I0
sg19
I123
sg20
I15
sg21
I2210
ssS'NikosSakavaras'
p342
(dp343
g3
(dp344
g12
(dp345
g7
F0.0
sg8
F0.0
sg9
F0.0
sssg18
I0
sg19
I8
sg20
I0
sg21
I143
ssS'eleni_choidas'
p346
(dp347
g3
(dp348
g5
(dp349
g7
F0.0017331022530329288
sg8
F6.0
sg9
F0.03076923076923077
ssg10
(dp350
g7
F0.01386481802426343
sg8
F48.0
sg9
F0.24615384615384617
ssg27
(dp351
g7
F0.002021952628538417
sg8
F7.0
sg9
F0.035897435897435895
ssg14
(dp352
g7
F0.010109763142692086
sg8
F35.0
sg9
F0.1794871794871795
ssg16
(dp353
g7
F0.006643558636626227
sg8
F23.0
sg9
F0.11794871794871795
ssg12
(dp354
g7
F0.03437319468515309
sg8
F119.0
sg9
F0.6102564102564103
sssg18
I0
sg19
I195
sg20
I119
sg21
I3462
ssS'Better_Finance'
p355
(dp356
g3
(dp357
g5
(dp358
g7
F0.002871912693854107
sg8
F10.0
sg9
F0.05434782608695652
ssg10
(dp359
g7
F0.005169442848937392
sg8
F18.0
sg9
F0.09782608695652174
ssg27
(dp360
g7
F0.005169442848937392
sg8
F18.0
sg9
F0.09782608695652174
ssg14
(dp361
g7
F0.0031591039632395176
sg8
F11.0
sg9
F0.059782608695652176
ssg16
(dp362
g7
F0.00430786904078116
sg8
F15.0
sg9
F0.08152173913043478
ssg12
(dp363
g7
F0.02067777139574957
sg8
F72.0
sg9
F0.391304347826087
sssg18
I0
sg19
I184
sg20
I72
sg21
I3482
ssS'valteraguiar654'
p364
(dp365
g3
(dp366
g12
(dp367
g7
F0.0
sg8
F0.0
sg9
F0.0
sssg18
I0
sg19
I2
sg20
I0
sg21
I28
ssS'mkhm'
p368
(dp369
g3
(dp370
g5
(dp371
g7
F0.004433934377771209
sg8
F15.0
sg9
F0.07614213197969544
ssg10
(dp372
g7
F0.007981081879988175
sg8
F27.0
sg9
F0.13705583756345177
ssg12
(dp373
g7
F0.020100502512562814
sg8
F68.0
sg9
F0.34517766497461927
ssg14
(dp374
g7
F0.0011823825007389892
sg8
F4.0
sg9
F0.02030456852791878
ssg16
(dp375
g7
F0.00650310375406444
sg8
F22.0
sg9
F0.1116751269035533
sssg18
I0
sg19
I197
sg20
I68
sg21
I3383
ssS'ISIgrowth'
p376
(dp377
g3
(dp378
g5
(dp379
g7
F0.007140428425705543
sg8
F21.0
sg9
F0.11864406779661017
ssg10
(dp380
g7
F0.015640938456307377
sg8
F46.0
sg9
F0.2598870056497175
ssg27
(dp381
g7
F0.0017001020061203672
sg8
F5.0
sg9
F0.02824858757062147
ssg14
(dp382
g7
F0.014280856851411085
sg8
F42.0
sg9
F0.23728813559322035
ssg16
(dp383
g7
F0.0013600816048962938
sg8
F4.0
sg9
F0.022598870056497175
ssg12
(dp384
g7
F0.04012240734444067
sg8
F118.0
sg9
F0.6666666666666666
sssg18
I0
sg19
I177
sg20
I118
sg21
I2941
ssS'filippoaddarii'
p385
(dp386
g3
(dp387
g5
(dp388
g7
F0.009690644800596348
sg8
F26.0
sg9
F0.18439716312056736
ssg10
(dp389
g7
F0.01714498695490123
sg8
F46.0
sg9
F0.3262411347517731
ssg27
(dp390
g7
F0.002609019754006709
sg8
F7.0
sg9
F0.04964539007092199
ssg14
(dp391
g7
F0.004099888184867686
sg8
F11.0
sg9
F0.07801418439716312
ssg16
(dp392
g7
F0.01528140141632501
sg8
F41.0
sg9
F0.2907801418439716
ssg12
(dp393
g7
F0.048825941110696984
sg8
F131.0
sg9
F0.9290780141843972
sssg18
I0
sg19
I141
sg20
I131
sg21
I2683
ssS'andrasonea'
p394
(dp395
g3
(dp396
g5
(dp397
g7
F0.0009811135638950208
sg8
F4.0
sg9
F0.02030456852791878
ssg10
(dp398
g7
F0.002207505518763797
sg8
F9.0
sg9
F0.04568527918781726
ssg27
(dp399
g7
F0.0009811135638950208
sg8
F4.0
sg9
F0.02030456852791878
ssg14
(dp400
g7
F0.0014716703458425313
sg8
F6.0
sg9
F0.030456852791878174
ssg16
(dp401
g7
F0.0012263919548687761
sg8
F5.0
sg9
F0.025380710659898477
ssg12
(dp402
g7
F0.006867794947265146
sg8
F28.0
sg9
F0.14213197969543148
sssg18
I0
sg19
I197
sg20
I28
sg21
I4077
ssS'MichaelRFerrari'
p403
(dp404
g3
(dp405
g5
(dp406
g7
F0.000927070457354759
sg8
F3.0
sg9
F0.015789473684210527
ssg10
(dp407
g7
F0.00896168108776267
sg8
F29.0
sg9
F0.15263157894736842
ssg27
(dp408
g7
F0.0006180469715698393
sg8
F2.0
sg9
F0.010526315789473684
ssg14
(dp409
g7
F0.00896168108776267
sg8
F29.0
sg9
F0.15263157894736842
ssg16
(dp410
g7
F0.0006180469715698393
sg8
F2.0
sg9
F0.010526315789473684
ssg12
(dp411
g7
F0.020086526576019777
sg8
F65.0
sg9
F0.34210526315789475
sssg18
I0
sg19
I190
sg20
I65
sg21
I3236
ssS'feducaydesarrol'
p412
(dp413
g3
(dp414
g12
(dp415
g7
F0.0
sg8
F0.0
sg9
F0.0
sssg18
I0
sg19
I2
sg20
I0
sg21
I47
ssS'johemart55'
p416
(dp417
g3
(dp418
g5
(dp419
g7
F0.002663622526636225
sg8
F7.0
sg9
F0.04294478527607362
ssg10
(dp420
g7
F0.001141552511415525
sg8
F3.0
sg9
F0.018404907975460124
ssg12
(dp421
g7
F0.004946727549467275
sg8
F13.0
sg9
F0.07975460122699386
ssg14
(dp422
g7
F0.000380517503805175
sg8
F1.0
sg9
F0.006134969325153374
ssg16
(dp423
g7
F0.00076103500761035
sg8
F2.0
sg9
F0.012269938650306749
sssg18
I0
sg19
I163
sg20
I13
sg21
I2628
ssS'openmaker'
p424
(dp425
g109
I0
sg110
I157
sg111
I3357
sg112
I58
sg113
(dp426
g126
(dp427
g117
F0.017277330950253203
sg118
F58.0
sg119
F0.36942675159235666
ssg115
(dp428
g117
F0.0074471254095918975
sg118
F25.0
sg119
F0.1592356687898089
ssg120
(dp429
g117
F0.005361930294906166
sg118
F18.0
sg119
F0.11464968152866242
ssg122
(dp430
g117
F0.0002978850163836759
sg118
F1.0
sg119
F0.006369426751592357
ssg124
(dp431
g117
F0.0005957700327673518
sg118
F2.0
sg119
F0.012738853503184714
ssS'4'
p432
(dp433
g117
F0.0035746201966041107
sg118
F12.0
sg119
F0.07643312101910828
ssssS'xavierhervas'
p434
(dp435
g3
(dp436
g5
(dp437
g7
F0.005793742757821553
sg8
F5.0
sg9
F0.12195121951219512
ssg10
(dp438
g7
F0.008111239860950173
sg8
F7.0
sg9
F0.17073170731707318
ssg27
(dp439
g7
F0.0011587485515643105
sg8
F1.0
sg9
F0.024390243902439025
ssg14
(dp440
g7
F0.005793742757821553
sg8
F5.0
sg9
F0.12195121951219512
ssg16
(dp441
g7
F0.002317497103128621
sg8
F2.0
sg9
F0.04878048780487805
ssg12
(dp442
g7
F0.023174971031286212
sg8
F20.0
sg9
F0.4878048780487805
sssg18
I0
sg19
I41
sg20
I20
sg21
I863
ssS'MBMConsultancy'
p443
(dp444
g3
(dp445
g5
(dp446
g7
F0.0007963368504877563
sg8
F4.0
sg9
F0.020202020202020204
ssg10
(dp447
g7
F0.0009954210631096954
sg8
F5.0
sg9
F0.025252525252525252
ssg12
(dp448
g7
F0.002389010551463269
sg8
F12.0
sg9
F0.06060606060606061
ssg14
(dp449
g7
F0.0005972526378658173
sg8
F3.0
sg9
F0.015151515151515152
sssg18
I0
sg19
I198
sg20
I12
sg21
I5023
ssS'BingoLittle1'
p450
(dp451
g3
(dp452
g5
(dp453
g7
F0.004606968039159228
sg8
F16.0
sg9
F0.0851063829787234
ssg10
(dp454
g7
F0.007774258566081198
sg8
F27.0
sg9
F0.14361702127659576
ssg27
(dp455
g7
F0.0005758710048949035
sg8
F2.0
sg9
F0.010638297872340425
ssg14
(dp456
g7
F0.0014396775122372588
sg8
F5.0
sg9
F0.026595744680851064
ssg16
(dp457
g7
F0.006046645551396487
sg8
F21.0
sg9
F0.11170212765957446
ssg12
(dp458
g7
F0.020443420673769076
sg8
F71.0
sg9
F0.3776595744680851
sssg18
I0
sg19
I188
sg20
I71
sg21
I3473
ssS'APRC_CF'
p459
(dp460
g3
(dp461
g5
(dp462
g7
F0.006112746207833371
sg8
F27.0
sg9
F0.135678391959799
ssg10
(dp463
g7
F0.0715417704324202
sg8
F316.0
sg9
F1.5879396984924623
ssg27
(dp464
g7
F0.021507810731265564
sg8
F95.0
sg9
F0.47738693467336685
ssg14
(dp465
g7
F0.0695041883631424
sg8
F307.0
sg9
F1.5427135678391959
ssg16
(dp466
g7
F0.001811184061580258
sg8
F8.0
sg9
F0.04020100502512563
ssg12
(dp467
g7
F0.1704776997962418
sg8
F753.0
sg9
F3.7839195979899496
sssg18
I0
sg19
I199
sg20
I753
sg21
I4417
ssS'gbracci_des'
p468
(dp469
g3
(dp470
g5
(dp471
g7
F0.0024229837313949464
sg8
F7.0
sg9
F0.05185185185185185
ssg10
(dp472
g7
F0.0013845621322256837
sg8
F4.0
sg9
F0.02962962962962963
ssg27
(dp473
g7
F0.0013845621322256837
sg8
F4.0
sg9
F0.02962962962962963
ssg14
(dp474
g7
F0.0010384215991692627
sg8
F3.0
sg9
F0.022222222222222223
ssg16
(dp475
g7
F0.0006922810661128419
sg8
F2.0
sg9
F0.014814814814814815
ssg12
(dp476
g7
F0.006922810661128418
sg8
F20.0
sg9
F0.14814814814814814
sssg18
I0
sg19
I135
sg20
I20
sg21
I2889
ssS'DrDrossosDem'
p477
(dp478
g3
(dp479
g5
(dp480
g7
F0.001787629603146228
sg8
F5.0
sg9
F0.032467532467532464
ssg10
(dp481
g7
F0.0010725777618877368
sg8
F3.0
sg9
F0.01948051948051948
ssg12
(dp482
g7
F0.003932785126921702
sg8
F11.0
sg9
F0.07142857142857142
ssg14
(dp483
g7
F0.0007150518412584912
sg8
F2.0
sg9
F0.012987012987012988
ssg16
(dp484
g7
F0.0003575259206292456
sg8
F1.0
sg9
F0.006493506493506494
sssg18
I0
sg19
I154
sg20
I11
sg21
I2797
ssS'PSalazarO'
p485
(dp486
g109
I0
sg110
I200
sg111
I3281
sg112
I14
sg113
(dp487
g115
(dp488
g117
F0.004266991770801585
sg118
F14.0
sg119
F0.07
ssg126
(dp489
g117
F0.004266991770801585
sg118
F14.0
sg119
F0.07
ssssS'e77876519af54a6'
p490
(dp491
g3
(dp492
g12
(dp493
g7
F0.0
sg8
F0.0
sg9
F0.0
sssg18
I0
sg19
I56
sg20
I0
sg21
I900
ssS'brianehenyo'
p494
(dp495
g3
(dp496
g5
(dp497
g7
F0.001977261492832427
sg8
F4.0
sg9
F0.029850746268656716
ssg10
(dp498
g7
F0.002471576866040534
sg8
F5.0
sg9
F0.03731343283582089
ssg12
(dp499
g7
F0.006426099851705388
sg8
F13.0
sg9
F0.09701492537313433
ssg16
(dp500
g7
F0.001977261492832427
sg8
F4.0
sg9
F0.029850746268656716
sssg18
I0
sg19
I134
sg20
I13
sg21
I2023
ssS'gagliol'
p501
(dp502
g3
(dp503
g5
(dp504
g7
F0.0014393666786613889
sg8
F4.0
sg9
F0.024691358024691357
ssg10
(dp505
g7
F0.00791651673263764
sg8
F22.0
sg9
F0.13580246913580246
ssg12
(dp506
g7
F0.01727240014393667
sg8
F48.0
sg9
F0.2962962962962963
ssg14
(dp507
g7
F0.0007196833393306944
sg8
F2.0
sg9
F0.012345679012345678
ssg16
(dp508
g7
F0.007196833393306945
sg8
F20.0
sg9
F0.12345679012345678
sssg18
I0
sg19
I162
sg20
I48
sg21
I2779
ssS'MacroPru'
p509
(dp510
g109
I0
sg110
I165
sg111
I2774
sg112
I13
sg113
(dp511
g115
(dp512
g117
F0.0032444124008651765
sg118
F9.0
sg119
F0.05454545454545454
ssg120
(dp513
g117
F0.0007209805335255948
sg118
F2.0
sg119
F0.012121212121212121
ssg126
(dp514
g117
F0.004686373467916366
sg118
F13.0
sg119
F0.07878787878787878
ssg124
(dp515
g117
F0.0007209805335255948
sg118
F2.0
sg119
F0.012121212121212121
ssssS'TarikRoukny'
p516
(dp517
g109
I0
sg110
I160
sg111
I2417
sg112
I19
sg113
(dp518
g115
(dp519
g117
F0.0024824162184526274
sg118
F6.0
sg119
F0.0375
ssg120
(dp520
g117
F0.002068680182043856
sg118
F5.0
sg119
F0.03125
ssg122
(dp521
g117
F0.0016549441456350847
sg118
F4.0
sg119
F0.025
ssg432
(dp522
g117
F0.0016549441456350847
sg118
F4.0
sg119
F0.025
ssg126
(dp523
g117
F0.007860984691766652
sg118
F19.0
sg119
F0.11875
ssssS'LuisaDeAmicis'
p524
(dp525
g109
I0
sg110
I176
sg111
I3340
sg112
I100
sg113
(dp526
g126
(dp527
g117
F0.029940119760479042
sg118
F100.0
sg119
F0.5681818181818182
ssg115
(dp528
g117
F0.006287425149700598
sg118
F21.0
sg119
F0.11931818181818182
ssg120
(dp529
g117
F0.009880239520958085
sg118
F33.0
sg119
F0.1875
ssg122
(dp530
g117
F0.002694610778443114
sg118
F9.0
sg119
F0.05113636363636364
ssg124
(dp531
g117
F0.003592814371257485
sg118
F12.0
sg119
F0.06818181818181818
ssg432
(dp532
g117
F0.0074850299401197605
sg118
F25.0
sg119
F0.14204545454545456
ssssS'Alex_GuerreroR'
p533
(dp534
g109
I0
sg110
I151
sg111
I2719
sg112
I29
sg113
(dp535
g126
(dp536
g117
F0.010665685913938948
sg118
F29.0
sg119
F0.19205298013245034
ssg115
(dp537
g117
F0.004045605001838912
sg118
F11.0
sg119
F0.0728476821192053
ssg120
(dp538
g117
F0.002942258183155572
sg118
F8.0
sg119
F0.052980132450331126
ssg122
(dp539
g117
F0.000735564545788893
sg118
F2.0
sg119
F0.013245033112582781
ssg124
(dp540
g117
F0.0018389113644722325
sg118
F5.0
sg119
F0.033112582781456956
ssg432
(dp541
g117
F0.0011033468186833395
sg118
F3.0
sg119
F0.019867549668874173
ssssS'zbattiz'
p542
(dp543
g109
I0
sg110
I194
sg111
I3639
sg112
I281
sg113
(dp544
g126
(dp545
g117
F0.0772190162132454
sg118
F281.0
sg119
F1.4484536082474226
ssg115
(dp546
g117
F0.0027480076944215444
sg118
F10.0
sg119
F0.05154639175257732
ssg120
(dp547
g117
F0.029403682330310526
sg118
F107.0
sg119
F0.5515463917525774
ssg122
(dp548
g117
F0.009618026930475405
sg118
F35.0
sg119
F0.18041237113402062
ssg124
(dp549
g117
F0.025556471558120363
sg118
F93.0
sg119
F0.4793814432989691
ssg432
(dp550
g117
F0.00989282769991756
sg118
F36.0
sg119
F0.18556701030927836
ssssS'oskayipek'
p551
(dp552
g3
(dp553
g10
(dp554
g7
F0.007594936708860759
sg8
F3.0
sg9
F0.13043478260869565
ssg12
(dp555
g7
F0.015189873417721518
sg8
F6.0
sg9
F0.2608695652173913
ssg14
(dp556
g7
F0.007594936708860759
sg8
F3.0
sg9
F0.13043478260869565
sssg18
I0
sg19
I23
sg20
I6
sg21
I395
ssS'shakgohir'
p557
(dp558
g3
(dp559
g5
(dp560
g7
F0.0029277813923227064
sg8
F9.0
sg9
F0.046875
ssg10
(dp561
g7
F0.001951854261548471
sg8
F6.0
sg9
F0.03125
ssg27
(dp562
g7
F0.00032530904359141186
sg8
F1.0
sg9
F0.005208333333333333
ssg14
(dp563
g7
F0.001951854261548471
sg8
F6.0
sg9
F0.03125
ssg16
(dp564
g7
F0.0006506180871828237
sg8
F2.0
sg9
F0.010416666666666666
ssg12
(dp565
g7
F0.007807417046193884
sg8
F24.0
sg9
F0.125
sssg18
I0
sg19
I192
sg20
I24
sg21
I3074
ssS'_marameo_'
p566
(dp567
g3
(dp568
g5
(dp569
g7
F0.0030716723549488053
sg8
F9.0
sg9
F0.05202312138728324
ssg10
(dp570
g7
F0.0030716723549488053
sg8
F9.0
sg9
F0.05202312138728324
ssg12
(dp571
g7
F0.008873720136518772
sg8
F26.0
sg9
F0.15028901734104047
ssg14
(dp572
g7
F0.0006825938566552901
sg8
F2.0
sg9
F0.011560693641618497
ssg16
(dp573
g7
F0.0020477815699658703
sg8
F6.0
sg9
F0.03468208092485549
sssg18
I0
sg19
I173
sg20
I26
sg21
I2930
ssS'_ch3m'
p574
(dp575
g109
I0
sg110
I151
sg111
I2664
sg112
I14
sg113
(dp576
g115
(dp577
g117
F0.0045045045045045045
sg118
F12.0
sg119
F0.07947019867549669
ssg120
(dp578
g117
F0.00037537537537537537
sg118
F1.0
sg119
F0.006622516556291391
ssg126
(dp579
g117
F0.005255255255255256
sg118
F14.0
sg119
F0.09271523178807947
ssg432
(dp580
g117
F0.00037537537537537537
sg118
F1.0
sg119
F0.006622516556291391
ssssS'Nietzchrodinger'
p581
(dp582
g3
(dp583
g5
(dp584
g7
F0.0007220216606498195
sg8
F1.0
sg9
F0.011111111111111112
ssg10
(dp585
g7
F0.002888086642599278
sg8
F4.0
sg9
F0.044444444444444446
ssg12
(dp586
g7
F0.006498194945848376
sg8
F9.0
sg9
F0.1
ssg16
(dp587
g7
F0.002888086642599278
sg8
F4.0
sg9
F0.044444444444444446
sssg18
I0
sg19
I90
sg20
I9
sg21
I1385
ssS'CRMFundFPB1'
p588
(dp589
g3
(dp590
g12
(dp591
g7
F0.0
sg8
F0.0
sg9
F0.0
sssg18
I0
sg19
I105
sg20
I0
sg21
I2093
ssS'RebuildMacro'
p592
(dp593
g3
(dp594
g5
(dp595
g7
F0.006287660466334818
sg8
F24.0
sg9
F0.12121212121212122
ssg10
(dp596
g7
F0.0039297877914592615
sg8
F15.0
sg9
F0.07575757575757576
ssg12
(dp597
g7
F0.013623264343725438
sg8
F52.0
sg9
F0.26262626262626265
ssg14
(dp598
g7
F0.0013099292638197536
sg8
F5.0
sg9
F0.025252525252525252
ssg16
(dp599
g7
F0.002095886822111606
sg8
F8.0
sg9
F0.04040404040404041
sssg18
I0
sg19
I198
sg20
I52
sg21
I3817
ssS'greenetworksco'
p600
(dp601
g3
(dp602
g5
(dp603
g7
F0.001628001628001628
sg8
F4.0
sg9
F0.027972027972027972
ssg10
(dp604
g7
F0.01790801790801791
sg8
F44.0
sg9
F0.3076923076923077
ssg12
(dp605
g7
F0.03866503866503866
sg8
F95.0
sg9
F0.6643356643356644
ssg14
(dp606
g7
F0.017501017501017502
sg8
F43.0
sg9
F0.3006993006993007
ssg16
(dp607
g7
F0.001628001628001628
sg8
F4.0
sg9
F0.027972027972027972
sssg18
I0
sg19
I143
sg20
I95
sg21
I2457
ssS'selobound'
p608
(dp609
g3
(dp610
g5
(dp611
g7
F0.002050440844781628
sg8
F10.0
sg9
F0.05102040816326531
ssg10
(dp612
g7
F0.004921058027475908
sg8
F24.0
sg9
F0.12244897959183673
ssg12
(dp613
g7
F0.010662292392864465
sg8
F52.0
sg9
F0.2653061224489796
ssg14
(dp614
g7
F0.0016403526758253025
sg8
F8.0
sg9
F0.04081632653061224
ssg16
(dp615
g7
F0.002050440844781628
sg8
F10.0
sg9
F0.05102040816326531
sssg18
I0
sg19
I196
sg20
I52
sg21
I4877
ssS'complex_harshal'
p616
(dp617
g3
(dp618
g5
(dp619
g7
F0.002944062806673209
sg8
F9.0
sg9
F0.04864864864864865
ssg10
(dp620
g7
F0.0032711808963035655
sg8
F10.0
sg9
F0.05405405405405406
ssg12
(dp621
g7
F0.009486424599280341
sg8
F29.0
sg9
F0.15675675675675677
ssg14
(dp622
g7
F0.0013084723585214263
sg8
F4.0
sg9
F0.021621621621621623
ssg16
(dp623
g7
F0.001962708537782139
sg8
F6.0
sg9
F0.032432432432432434
sssg18
I0
sg19
I185
sg20
I29
sg21
I3057
ssS'netsci2017'
p624
(dp625
g3
(dp626
g5
(dp627
g7
F0.003348961821835231
sg8
F10.0
sg9
F0.053475935828877004
ssg10
(dp628
g7
F0.0056932350971198925
sg8
F17.0
sg9
F0.09090909090909091
ssg12
(dp629
g7
F0.014735432016075016
sg8
F44.0
sg9
F0.23529411764705882
ssg14
(dp630
g7
F0.0003348961821835231
sg8
F1.0
sg9
F0.0053475935828877
ssg16
(dp631
g7
F0.0053583389149363695
sg8
F16.0
sg9
F0.0855614973262032
sssg18
I0
sg19
I187
sg20
I44
sg21
I2986
ssS'GSalakas'
p632
(dp633
g3
(dp634
g12
(dp635
g7
F0.0
sg8
F0.0
sg9
F0.0
sssg18
I0
sg19
I2
sg20
I0
sg21
I4
ssS'LetUsShineNow'
p636
(dp637
g3
(dp638
g5
(dp639
g7
F0.0005820721769499418
sg8
F1.0
sg9
F0.008849557522123894
ssg10
(dp640
g7
F0.0005820721769499418
sg8
F1.0
sg9
F0.008849557522123894
ssg12
(dp641
g7
F0.0011641443538998836
sg8
F2.0
sg9
F0.017699115044247787
sssg18
I0
sg19
I113
sg20
I2
sg21
I1718
ssS'mike_n_martin'
p642
(dp643
g3
(dp644
g5
(dp645
g7
F0.00029850746268656717
sg8
F1.0
sg9
F0.00546448087431694
ssg10
(dp646
g7
F0.003880597014925373
sg8
F13.0
sg9
F0.07103825136612021
ssg12
(dp647
g7
F0.008656716417910448
sg8
F29.0
sg9
F0.15846994535519127
ssg14
(dp648
g7
F0.003582089552238806
sg8
F12.0
sg9
F0.06557377049180328
ssg16
(dp649
g7
F0.0008955223880597015
sg8
F3.0
sg9
F0.01639344262295082
sssg18
I0
sg19
I183
sg20
I29
sg21
I3350
ssS'jmblanch'
p650
(dp651
g109
I0
sg110
I132
sg111
I2130
sg112
I28
sg113
(dp652
g126
(dp653
g117
F0.013145539906103286
sg118
F28.0
sg119
F0.21212121212121213
ssg115
(dp654
g117
F0.007511737089201878
sg118
F16.0
sg119
F0.12121212121212122
ssg120
(dp655
g117
F0.002347417840375587
sg118
F5.0
sg119
F0.03787878787878788
ssg122
(dp656
g117
F0.0009389671361502347
sg118
F2.0
sg119
F0.015151515151515152
ssg124
(dp657
g117
F0.00046948356807511736
sg118
F1.0
sg119
F0.007575757575757576
ssg432
(dp658
g117
F0.0018779342723004694
sg118
F4.0
sg119
F0.030303030303030304
ssssS'PaoloBarucca'
p659
(dp660
g109
I0
sg110
I174
sg111
I2862
sg112
I55
sg113
(dp661
g126
(dp662
g117
F0.019217330538085255
sg118
F55.0
sg119
F0.3160919540229885
ssg115
(dp663
g117
F0.003843466107617051
sg118
F11.0
sg119
F0.06321839080459771
ssg120
(dp664
g117
F0.0069881201956673656
sg118
F20.0
sg119
F0.11494252873563218
ssg122
(dp665
g117
F0.0006988120195667365
sg118
F2.0
sg119
F0.011494252873563218
ssg124
(dp666
g117
F0.005590496156533892
sg118
F16.0
sg119
F0.09195402298850575
ssg432
(dp667
g117
F0.0020964360587002098
sg118
F6.0
sg119
F0.034482758620689655
ssssS'Project722TMX'
p668
(dp669
g3
(dp670
g10
(dp671
g7
F0.0015151515151515152
sg8
F1.0
sg9
F0.023255813953488372
ssg12
(dp672
g7
F0.0030303030303030303
sg8
F2.0
sg9
F0.046511627906976744
ssg14
(dp673
g7
F0.0015151515151515152
sg8
F1.0
sg9
F0.023255813953488372
sssg18
I0
sg19
I43
sg20
I2
sg21
I660
ssS'jimodonnell2'
p674
(dp675
g3
(dp676
g5
(dp677
g7
F0.002176278563656148
sg8
F8.0
sg9
F0.042105263157894736
ssg10
(dp678
g7
F0.009249183895538629
sg8
F34.0
sg9
F0.17894736842105263
ssg27
(dp679
g7
F0.000544069640914037
sg8
F2.0
sg9
F0.010526315789473684
ssg14
(dp680
g7
F0.008705114254624592
sg8
F32.0
sg9
F0.16842105263157894
ssg12
(dp681
g7
F0.020674646354733407
sg8
F76.0
sg9
F0.4
sssg18
I0
sg19
I190
sg20
I76
sg21
I3676
ssS'FredAmblard'
p682
(dp683
g3
(dp684
g5
(dp685
g7
F0.001075268817204301
sg8
F1.0
sg9
F0.017543859649122806
ssg10
(dp686
g7
F0.008602150537634409
sg8
F8.0
sg9
F0.14035087719298245
ssg12
(dp687
g7
F0.01827956989247312
sg8
F17.0
sg9
F0.2982456140350877
ssg14
(dp688
g7
F0.005376344086021506
sg8
F5.0
sg9
F0.08771929824561403
ssg16
(dp689
g7
F0.0032258064516129032
sg8
F3.0
sg9
F0.05263157894736842
sssg18
I0
sg19
I57
sg20
I17
sg21
I930
ssS'bonosverdes'
p690
(dp691
g3
(dp692
g5
(dp693
g7
F0.0009246417013407304
sg8
F2.0
sg9
F0.015037593984962405
ssg10
(dp694
g7
F0.041146555709662504
sg8
F89.0
sg9
F0.6691729323308271
ssg27
(dp695
g7
F0.003236245954692557
sg8
F7.0
sg9
F0.05263157894736842
ssg14
(dp696
g7
F0.041146555709662504
sg8
F89.0
sg9
F0.6691729323308271
ssg16
(dp697
g7
F0.004623208506703652
sg8
F10.0
sg9
F0.07518796992481203
ssg12
(dp698
g7
F0.09107720758206195
sg8
F197.0
sg9
F1.481203007518797
sssg18
I0
sg19
I133
sg20
I197
sg21
I2163
ssS'Maxknew'
p699
(dp700
g3
(dp701
g5
(dp702
g7
F0.0020891364902506965
sg8
F6.0
sg9
F0.03592814371257485
ssg10
(dp703
g7
F0.00034818941504178273
sg8
F1.0
sg9
F0.005988023952095809
ssg12
(dp704
g7
F0.002785515320334262
sg8
F8.0
sg9
F0.04790419161676647
ssg16
(dp705
g7
F0.00034818941504178273
sg8
F1.0
sg9
F0.005988023952095809
sssg18
I0
sg19
I167
sg20
I8
sg21
I2872
ssS'FranciscoICMC'
p706
(dp707
g3
(dp708
g5
(dp709
g7
F0.0011181513231457323
sg8
F3.0
sg9
F0.018518518518518517
ssg10
(dp710
g7
F0.002609019754006709
sg8
F7.0
sg9
F0.043209876543209874
ssg12
(dp711
g7
F0.005963473723443906
sg8
F16.0
sg9
F0.09876543209876543
ssg14
(dp712
g7
F0.0011181513231457323
sg8
F3.0
sg9
F0.018518518518518517
ssg16
(dp713
g7
F0.0011181513231457323
sg8
F3.0
sg9
F0.018518518518518517
sssg18
I0
sg19
I162
sg20
I16
sg21
I2683
ssS'poulistecom'
p714
(dp715
g3
(dp716
g12
(dp717
g7
F0.0
sg8
F0.0
sg9
F0.0
sssg18
I0
sg19
I18
sg20
I0
sg21
I281
ssS'MiguelBasire'
p718
(dp719
g3
(dp720
g10
(dp721
g7
F0.0012578616352201257
sg8
F1.0
sg9
F0.018867924528301886
ssg12
(dp722
g7
F0.0025157232704402514
sg8
F2.0
sg9
F0.03773584905660377
ssg16
(dp723
g7
F0.0012578616352201257
sg8
F1.0
sg9
F0.018867924528301886
sssg18
I0
sg19
I53
sg20
I2
sg21
I795
ssS'SwissCognitive'
p724
(dp725
g3
(dp726
g5
(dp727
g7
F0.00694654183026276
sg8
F23.0
sg9
F0.115
ssg10
(dp728
g7
F0.0012080942313500453
sg8
F4.0
sg9
F0.02
ssg12
(dp729
g7
F0.009664753850800362
sg8
F32.0
sg9
F0.16
ssg14
(dp730
g7
F0.0006040471156750226
sg8
F2.0
sg9
F0.01
ssg16
(dp731
g7
F0.000906070673512534
sg8
F3.0
sg9
F0.015
sssg18
I0
sg19
I200
sg20
I32
sg21
I3311
ssS'bastidas_d'
p732
(dp733
g3
(dp734
g5
(dp735
g7
F0.0025167785234899327
sg8
F3.0
sg9
F0.04225352112676056
ssg10
(dp736
g7
F0.01174496644295302
sg8
F14.0
sg9
F0.19718309859154928
ssg27
(dp737
g7
F0.0008389261744966443
sg8
F1.0
sg9
F0.014084507042253521
ssg14
(dp738
g7
F0.010906040268456376
sg8
F13.0
sg9
F0.18309859154929578
ssg12
(dp739
g7
F0.026006711409395974
sg8
F31.0
sg9
F0.43661971830985913
sssg18
I0
sg19
I71
sg20
I31
sg21
I1192
ssS'aparpau'
p740
(dp741
g3
(dp742
g5
(dp743
g7
F0.00966635484876832
sg8
F31.0
sg9
F0.16666666666666666
ssg10
(dp744
g7
F0.038041783598378544
sg8
F122.0
sg9
F0.6559139784946236
ssg27
(dp745
g7
F0.005924540068599937
sg8
F19.0
sg9
F0.10215053763440861
ssg14
(dp746
g7
F0.03554724041159962
sg8
F114.0
sg9
F0.6129032258064516
ssg16
(dp747
g7
F0.0006236357966947302
sg8
F2.0
sg9
F0.010752688172043012
ssg12
(dp748
g7
F0.08980355472404115
sg8
F288.0
sg9
F1.5483870967741935
sssg18
I0
sg19
I186
sg20
I288
sg21
I3207
ssS'oddsku007'
p749
(dp750
g3
(dp751
g5
(dp752
g7
F0.0030541012216404886
sg8
F7.0
sg9
F0.041176470588235294
ssg10
(dp753
g7
F0.002617801047120419
sg8
F6.0
sg9
F0.03529411764705882
ssg12
(dp754
g7
F0.008289703315881327
sg8
F19.0
sg9
F0.11176470588235295
ssg14
(dp755
g7
F0.0004363001745200698
sg8
F1.0
sg9
F0.0058823529411764705
ssg16
(dp756
g7
F0.002181500872600349
sg8
F5.0
sg9
F0.029411764705882353
sssg18
I0
sg19
I170
sg20
I19
sg21
I2292
ssS'DiabetesDaisy'
p757
(dp758
g3
(dp759
g10
(dp760
g7
F0.0008075370121130552
sg8
F3.0
sg9
F0.015
ssg12
(dp761
g7
F0.0008075370121130552
sg8
F3.0
sg9
F0.015
sssg18
I0
sg19
I200
sg20
I3
sg21
I3715
ssS'bginoc'
p762
(dp763
g3
(dp764
g5
(dp765
g7
F0.009126009126009126
sg8
F26.0
sg9
F0.13471502590673576
ssg10
(dp766
g7
F0.004914004914004914
sg8
F14.0
sg9
F0.07253886010362694
ssg12
(dp767
g7
F0.018603018603018603
sg8
F53.0
sg9
F0.27461139896373055
ssg14
(dp768
g7
F0.001053001053001053
sg8
F3.0
sg9
F0.015544041450777202
ssg16
(dp769
g7
F0.00351000351000351
sg8
F10.0
sg9
F0.05181347150259067
sssg18
I0
sg19
I193
sg20
I53
sg21
I2849
ssS'CMCSatBU'
p770
(dp771
g3
(dp772
g5
(dp773
g7
F0.00145985401459854
sg8
F4.0
sg9
F0.02185792349726776
ssg10
(dp774
g7
F0.0021897810218978104
sg8
F6.0
sg9
F0.03278688524590164
ssg12
(dp775
g7
F0.00583941605839416
sg8
F16.0
sg9
F0.08743169398907104
ssg16
(dp776
g7
F0.0021897810218978104
sg8
F6.0
sg9
F0.03278688524590164
sssg18
I0
sg19
I183
sg20
I16
sg21
I2740
ssS'KerrieMengersen'
p777
(dp778
g3
(dp779
g5
(dp780
g7
F0.0024423337856173677
sg8
F9.0
sg9
F0.046153846153846156
ssg10
(dp781
g7
F0.0013568521031207597
sg8
F5.0
sg9
F0.02564102564102564
ssg12
(dp782
g7
F0.004613297150610584
sg8
F17.0
sg9
F0.08717948717948718
ssg14
(dp783
g7
F0.0008141112618724559
sg8
F3.0
sg9
F0.015384615384615385
sssg18
I0
sg19
I195
sg20
I17
sg21
I3685
ssS'Saracris95'
p784
(dp785
g3
(dp786
g5
(dp787
g7
F0.0010576414595452142
sg8
F2.0
sg9
F0.014184397163120567
ssg12
(dp788
g7
F0.0010576414595452142
sg8
F2.0
sg9
F0.014184397163120567
sssg18
I0
sg19
I141
sg20
I2
sg21
I1891
ssS'sees_lab'
p789
(dp790
g3
(dp791
g5
(dp792
g7
F0.0009910802775024777
sg8
F3.0
sg9
F0.016483516483516484
ssg10
(dp793
g7
F0.006607201850016518
sg8
F20.0
sg9
F0.10989010989010989
ssg12
(dp794
g7
F0.014866204162537165
sg8
F45.0
sg9
F0.24725274725274726
ssg14
(dp795
g7
F0.002642880740006607
sg8
F8.0
sg9
F0.04395604395604396
ssg16
(dp796
g7
F0.004625041295011563
sg8
F14.0
sg9
F0.07692307692307693
sssg18
I0
sg19
I182
sg20
I45
sg21
I3027
ssS'jgroshek'
p797
(dp798
g3
(dp799
g5
(dp800
g7
F0.0028526148969889066
sg8
F9.0
sg9
F0.04522613065326633
ssg10
(dp801
g7
F0.0012678288431061807
sg8
F4.0
sg9
F0.020100502512562814
ssg12
(dp802
g7
F0.005388272583201268
sg8
F17.0
sg9
F0.08542713567839195
ssg16
(dp803
g7
F0.0012678288431061807
sg8
F4.0
sg9
F0.020100502512562814
sssg18
I0
sg19
I199
sg20
I17
sg21
I3155
ssS'fet_eu'
p804
(dp805
g109
I0
sg110
I179
sg111
I3021
sg112
I18
sg113
(dp806
g115
(dp807
g117
F0.005958291956305859
sg118
F18.0
sg119
F0.1005586592178771
ssg126
(dp808
g117
F0.005958291956305859
sg118
F18.0
sg119
F0.1005586592178771
ssssS'mireillmartini'
p809
(dp810
g3
(dp811
g5
(dp812
g7
F0.0011467889908256881
sg8
F2.0
sg9
F0.02127659574468085
ssg10
(dp813
g7
F0.014908256880733946
sg8
F26.0
sg9
F0.2765957446808511
ssg27
(dp814
g7
F0.0022935779816513763
sg8
F4.0
sg9
F0.0425531914893617
ssg14
(dp815
g7
F0.013761467889908258
sg8
F24.0
sg9
F0.2553191489361702
ssg16
(dp816
g7
F0.0028669724770642203
sg8
F5.0
sg9
F0.05319148936170213
ssg12
(dp817
g7
F0.034977064220183485
sg8
F61.0
sg9
F0.648936170212766
sssg18
I0
sg19
I94
sg20
I61
sg21
I1744
ssS'kosttttoziss'
p818
(dp819
g3
(dp820
g12
(dp821
g7
F0.0
sg8
F0.0
sg9
F0.0
sssg18
I0
sg19
I101
sg20
I0
sg21
I593
ssS'prabprab'
p822
(dp823
g109
I0
sg110
I171
sg111
I2334
sg112
I21
sg113
(dp824
g115
(dp825
g117
F0.002570694087403599
sg118
F6.0
sg119
F0.03508771929824561
ssg120
(dp826
g117
F0.003427592116538132
sg118
F8.0
sg119
F0.04678362573099415
ssg126
(dp827
g117
F0.008997429305912597
sg118
F21.0
sg119
F0.12280701754385964
ssg124
(dp828
g117
F0.000856898029134533
sg118
F2.0
sg119
F0.011695906432748537
ssg432
(dp829
g117
F0.0021422450728363325
sg118
F5.0
sg119
F0.029239766081871343
ssssS'impaqt_io'
p830
(dp831
g3
(dp832
g5
(dp833
g7
F0.006610259122157589
sg8
F25.0
sg9
F0.12690355329949238
ssg10
(dp834
g7
F0.00978318350079323
sg8
F37.0
sg9
F0.18781725888324874
ssg27
(dp835
g7
F0.00026441036488630354
sg8
F1.0
sg9
F0.005076142131979695
ssg14
(dp836
g7
F0.004759386567953464
sg8
F18.0
sg9
F0.09137055837563451
ssg16
(dp837
g7
F0.007403490216816499
sg8
F28.0
sg9
F0.14213197969543148
ssg12
(dp838
g7
F0.028820729772607086
sg8
F109.0
sg9
F0.5532994923857868
sssg18
I0
sg19
I197
sg20
I109
sg21
I3782
ssS'the_young_fdn'
p839
(dp840
g3
(dp841
g5
(dp842
g7
F0.007199424046076314
sg8
F40.0
sg9
F0.2
ssg10
(dp843
g7
F0.007019438444924406
sg8
F39.0
sg9
F0.195
ssg27
(dp844
g7
F0.0007199424046076314
sg8
F4.0
sg9
F0.02
ssg14
(dp845
g7
F0.0019798416126709864
sg8
F11.0
sg9
F0.055
ssg16
(dp846
g7
F0.005219582433405328
sg8
F29.0
sg9
F0.145
ssg12
(dp847
g7
F0.022138228941684664
sg8
F123.0
sg9
F0.615
sssg18
I0
sg19
I200
sg20
I123
sg21
I5556
ssS'SandyBisaro'
p848
(dp849
g3
(dp850
g5
(dp851
g7
F0.0008488964346349745
sg8
F2.0
sg9
F0.013986013986013986
ssg10
(dp852
g7
F0.008064516129032258
sg8
F19.0
sg9
F0.13286713286713286
ssg27
(dp853
g7
F0.0021222410865874364
sg8
F5.0
sg9
F0.03496503496503497
ssg14
(dp854
g7
F0.007215619694397283
sg8
F17.0
sg9
F0.11888111888111888
ssg16
(dp855
g7
F0.0012733446519524619
sg8
F3.0
sg9
F0.02097902097902098
ssg12
(dp856
g7
F0.019524617996604415
sg8
F46.0
sg9
F0.32167832167832167
sssg18
I0
sg19
I143
sg20
I46
sg21
I2356
ssS'HNR_org'
p857
(dp858
g3
(dp859
g5
(dp860
g7
F0.0028089887640449437
sg8
F6.0
sg9
F0.04
ssg10
(dp861
g7
F0.008895131086142321
sg8
F19.0
sg9
F0.12666666666666668
ssg12
(dp862
g7
F0.020131086142322098
sg8
F43.0
sg9
F0.2866666666666667
ssg16
(dp863
g7
F0.008426966292134831
sg8
F18.0
sg9
F0.12
sssg18
I0
sg19
I150
sg20
I43
sg21
I2136
ssS'greenwinproject'
p864
(dp865
g109
I0
sg110
I189
sg111
I3443
sg112
I269
sg113
(dp866
g126
(dp867
g117
F0.07812953819343596
sg118
F269.0
sg119
F1.4232804232804233
ssg115
(dp868
g117
F0.004647110078419983
sg118
F16.0
sg119
F0.08465608465608465
ssg120
(dp869
g117
F0.03398199244844612
sg118
F117.0
sg119
F0.6190476190476191
ssg122
(dp870
g117
F0.003194888178913738
sg118
F11.0
sg119
F0.0582010582010582
ssg124
(dp871
g117
F0.031077548649433632
sg118
F107.0
sg119
F0.5661375661375662
ssg432
(dp872
g117
F0.00522799883822248
sg118
F18.0
sg119
F0.09523809523809523
ssssS'elifgunduzyeli'
p873
(dp874
g3
(dp875
g10
(dp876
g7
F0.00501432664756447
sg8
F7.0
sg9
F0.1
ssg27
(dp877
g7
F0.002148997134670487
sg8
F3.0
sg9
F0.04285714285714286
ssg14
(dp878
g7
F0.00501432664756447
sg8
F7.0
sg9
F0.1
ssg12
(dp879
g7
F0.012177650429799427
sg8
F17.0
sg9
F0.24285714285714285
sssg18
I0
sg19
I70
sg20
I17
sg21
I1396
ssS'indy_johar'
p880
(dp881
g3
(dp882
g5
(dp883
g7
F0.004284949116229245
sg8
F16.0
sg9
F0.08376963350785341
ssg10
(dp884
g7
F0.008302088912694162
sg8
F31.0
sg9
F0.16230366492146597
ssg27
(dp885
g7
F0.0002678093197643278
sg8
F1.0
sg9
F0.005235602094240838
ssg14
(dp886
g7
F0.00241028387787895
sg8
F9.0
sg9
F0.04712041884816754
ssg16
(dp887
g7
F0.0058918050348152114
sg8
F22.0
sg9
F0.11518324607329843
ssg12
(dp888
g7
F0.021156936261381896
sg8
F79.0
sg9
F0.41361256544502617
sssg18
I0
sg19
I191
sg20
I79
sg21
I3734
ssS'bb_pedromartins'
p889
(dp890
g3
(dp891
g5
(dp892
g7
F0.0047522063815342835
sg8
F21.0
sg9
F0.105
ssg10
(dp893
g7
F0.0006788866259334691
sg8
F3.0
sg9
F0.015
ssg12
(dp894
g7
F0.006109979633401222
sg8
F27.0
sg9
F0.135
ssg14
(dp895
g7
F0.0006788866259334691
sg8
F3.0
sg9
F0.015
sssg18
I0
sg19
I200
sg20
I27
sg21
I4419
ssS'resume_unilu'
p896
(dp897
g3
(dp898
g5
(dp899
g7
F0.00211864406779661
sg8
F5.0
sg9
F0.034482758620689655
ssg10
(dp900
g7
F0.0038135593220338985
sg8
F9.0
sg9
F0.06206896551724138
ssg27
(dp901
g7
F0.000423728813559322
sg8
F1.0
sg9
F0.006896551724137931
ssg14
(dp902
g7
F0.000423728813559322
sg8
F1.0
sg9
F0.006896551724137931
ssg16
(dp903
g7
F0.003389830508474576
sg8
F8.0
sg9
F0.05517241379310345
ssg12
(dp904
g7
F0.010169491525423728
sg8
F24.0
sg9
F0.16551724137931034
sssg18
I0
sg19
I145
sg20
I24
sg21
I2360
ssS'nanumyan'
p905
(dp906
g3
(dp907
g5
(dp908
g7
F0.002963841138114997
sg8
F5.0
sg9
F0.04672897196261682
ssg10
(dp909
g7
F0.0017783046828689982
sg8
F3.0
sg9
F0.028037383177570093
ssg12
(dp910
g7
F0.005927682276229994
sg8
F10.0
sg9
F0.09345794392523364
ssg14
(dp911
g7
F0.0005927682276229994
sg8
F1.0
sg9
F0.009345794392523364
ssg16
(dp912
g7
F0.0005927682276229994
sg8
F1.0
sg9
F0.009345794392523364
sssg18
I0
sg19
I107
sg20
I10
sg21
I1687
ssS'Filipata_'
p913
(dp914
g3
(dp915
g12
(dp916
g7
F0.0
sg8
F0.0
sg9
F0.0
sssg18
I0
sg19
I33
sg20
I0
sg21
I483
ssS'johnbirdswords'
p917
(dp918
g3
(dp919
g5
(dp920
g7
F0.0023065094823167607
sg8
F9.0
sg9
F0.04568527918781726
ssg10
(dp921
g7
F0.004356740133264992
sg8
F17.0
sg9
F0.08629441624365482
ssg12
(dp922
g7
F0.010251153254741158
sg8
F40.0
sg9
F0.20304568527918782
ssg14
(dp923
g7
F0.00025627883136852895
sg8
F1.0
sg9
F0.005076142131979695
ssg16
(dp924
g7
F0.0033316248077908763
sg8
F13.0
sg9
F0.06598984771573604
sssg18
I0
sg19
I197
sg20
I40
sg21
I3902
ssS'aurorab96124853'
p925
(dp926
g3
(dp927
g12
(dp928
g7
F0.0
sg8
F0.0
sg9
F0.0
sssg18
I0
sg19
I1
sg20
I0
sg21
I10
ssS'p_chiocchetti'
p929
(dp930
g3
(dp931
g5
(dp932
g7
F0.001187178472497032
sg8
F3.0
sg9
F0.022727272727272728
ssg10
(dp933
g7
F0.004748713889988128
sg8
F12.0
sg9
F0.09090909090909091
ssg12
(dp934
g7
F0.010684606252473288
sg8
F27.0
sg9
F0.20454545454545456
ssg14
(dp935
g7
F0.0019786307874950534
sg8
F5.0
sg9
F0.03787878787878788
ssg16
(dp936
g7
F0.002770083102493075
sg8
F7.0
sg9
F0.05303030303030303
sssg18
I0
sg19
I132
sg20
I27
sg21
I2527
ssS'kst_stadler'
p937
(dp938
g3
(dp939
g5
(dp940
g7
F0.0021214531954388757
sg8
F8.0
sg9
F0.041666666666666664
ssg10
(dp941
g7
F0.009016176080615222
sg8
F34.0
sg9
F0.17708333333333334
ssg12
(dp942
g7
F0.02015380535666932
sg8
F76.0
sg9
F0.3958333333333333
ssg14
(dp943
g7
F0.008485812781755503
sg8
F32.0
sg9
F0.16666666666666666
ssg16
(dp944
g7
F0.0005303632988597189
sg8
F2.0
sg9
F0.010416666666666666
sssg18
I0
sg19
I192
sg20
I76
sg21
I3771
ssS'gary6115'
p945
(dp946
g3
(dp947
g5
(dp948
g7
F0.00034071550255536625
sg8
F1.0
sg9
F0.005263157894736842
ssg12
(dp949
g7
F0.00034071550255536625
sg8
F1.0
sg9
F0.005263157894736842
sssg18
I0
sg19
I190
sg20
I1
sg21
I2935
ssS'hans_taeubler'
p950
(dp951
g3
(dp952
g5
(dp953
g7
F0.002777777777777778
sg8
F5.0
sg9
F0.045454545454545456
ssg12
(dp954
g7
F0.002777777777777778
sg8
F5.0
sg9
F0.045454545454545456
sssg18
I0
sg19
I110
sg20
I5
sg21
I1800
ssS'manlius84'
p955
(dp956
g3
(dp957
g5
(dp958
g7
F0.004620271440947156
sg8
F16.0
sg9
F0.0851063829787234
ssg10
(dp959
g7
F0.0040427375108287615
sg8
F14.0
sg9
F0.07446808510638298
ssg27
(dp960
g7
F0.00028876696505919725
sg8
F1.0
sg9
F0.005319148936170213
ssg14
(dp961
g7
F0.0031764366156511693
sg8
F11.0
sg9
F0.05851063829787234
ssg16
(dp962
g7
F0.0008663008951775916
sg8
F3.0
sg9
F0.015957446808510637
ssg12
(dp963
g7
F0.012994513427663876
sg8
F45.0
sg9
F0.2393617021276596
sssg18
I0
sg19
I188
sg20
I45
sg21
I3463
ssS'VCRebecca'
p964
(dp965
g3
(dp966
g5
(dp967
g7
F0.003218884120171674
sg8
F9.0
sg9
F0.04568527918781726
ssg10
(dp968
g7
F0.000357653791130186
sg8
F1.0
sg9
F0.005076142131979695
ssg12
(dp969
g7
F0.003934191702432046
sg8
F11.0
sg9
F0.05583756345177665
ssg16
(dp970
g7
F0.000357653791130186
sg8
F1.0
sg9
F0.005076142131979695
sssg18
I0
sg19
I197
sg20
I11
sg21
I2796
ssS'arthurturrell'
p971
(dp972
g3
(dp973
g5
(dp974
g7
F0.0035131744040150566
sg8
F14.0
sg9
F0.07179487179487179
ssg10
(dp975
g7
F0.000752823086574655
sg8
F3.0
sg9
F0.015384615384615385
ssg27
(dp976
g7
F0.0002509410288582183
sg8
F1.0
sg9
F0.005128205128205128
ssg14
(dp977
g7
F0.0002509410288582183
sg8
F1.0
sg9
F0.005128205128205128
ssg16
(dp978
g7
F0.0002509410288582183
sg8
F1.0
sg9
F0.005128205128205128
ssg12
(dp979
g7
F0.005018820577164366
sg8
F20.0
sg9
F0.10256410256410256
sssg18
I0
sg19
I195
sg20
I20
sg21
I3985
ssS'andkarpf'
p980
(dp981
g109
I0
sg110
I9
sg111
I192
sg112
I16
sg113
(dp982
g115
(dp983
g117
F0.005208333333333333
sg118
F1.0
sg119
F0.1111111111111111
ssg120
(dp984
g117
F0.036458333333333336
sg118
F7.0
sg119
F0.7777777777777778
ssg122
(dp985
g117
F0.005208333333333333
sg118
F1.0
sg119
F0.1111111111111111
ssg124
(dp986
g117
F0.036458333333333336
sg118
F7.0
sg119
F0.7777777777777778
ssg126
(dp987
g117
F0.08333333333333333
sg118
F16.0
sg119
F1.7777777777777777
ssssS'gomezramirez_ac'
p988
(dp989
g3
(dp990
g5
(dp991
g7
F0.002932551319648094
sg8
F7.0
sg9
F0.046052631578947366
ssg10
(dp992
g7
F0.0016757436112274822
sg8
F4.0
sg9
F0.02631578947368421
ssg12
(dp993
g7
F0.006284038542103058
sg8
F15.0
sg9
F0.09868421052631579
ssg14
(dp994
g7
F0.0008378718056137411
sg8
F2.0
sg9
F0.013157894736842105
ssg16
(dp995
g7
F0.0008378718056137411
sg8
F2.0
sg9
F0.013157894736842105
sssg18
I0
sg19
I152
sg20
I15
sg21
I2387
ssS'thekokytus'
p996
(dp997
g3
(dp998
g5
(dp999
g7
F0.0030097817908201654
sg8
F8.0
sg9
F0.04597701149425287
ssg10
(dp1000
g7
F0.002257336343115124
sg8
F6.0
sg9
F0.034482758620689655
ssg12
(dp1001
g7
F0.007524454477050414
sg8
F20.0
sg9
F0.11494252873563218
ssg14
(dp1002
g7
F0.0003762227238525207
sg8
F1.0
sg9
F0.005747126436781609
ssg16
(dp1003
g7
F0.0018811136192626034
sg8
F5.0
sg9
F0.028735632183908046
sssg18
I0
sg19
I174
sg20
I20
sg21
I2658
ssS'WiedmannBibel'
p1004
(dp1005
g3
(dp1006
g12
(dp1007
g7
F0.0
sg8
F0.0
sg9
F0.0
sssg18
I0
sg19
I6
sg20
I0
sg21
I60
ssS'LeadMakelaar'
p1008
(dp1009
g3
(dp1010
g10
(dp1011
g7
F0.004878048780487805
sg8
F1.0
sg9
F0.043478260869565216
ssg12
(dp1012
g7
F0.00975609756097561
sg8
F2.0
sg9
F0.08695652173913043
ssg16
(dp1013
g7
F0.004878048780487805
sg8
F1.0
sg9
F0.043478260869565216
sssg18
I0
sg19
I23
sg20
I2
sg21
I205
ssS'Peveeeric1'
p1014
(dp1015
g3
(dp1016
g5
(dp1017
g7
F0.0005078720162519045
sg8
F1.0
sg9
F0.007692307692307693
ssg10
(dp1018
g7
F0.001015744032503809
sg8
F2.0
sg9
F0.015384615384615385
ssg27
(dp1019
g7
F0.0005078720162519045
sg8
F1.0
sg9
F0.007692307692307693
ssg14
(dp1020
g7
F0.0005078720162519045
sg8
F1.0
sg9
F0.007692307692307693
ssg16
(dp1021
g7
F0.0005078720162519045
sg8
F1.0
sg9
F0.007692307692307693
ssg12
(dp1022
g7
F0.0030472320975114273
sg8
F6.0
sg9
F0.046153846153846156
sssg18
I0
sg19
I130
sg20
I6
sg21
I1969
ssS'syaltout'
p1023
(dp1024
g3
(dp1025
g5
(dp1026
g7
F0.003278688524590164
sg8
F1.0
sg9
F0.05555555555555555
ssg10
(dp1027
g7
F0.003278688524590164
sg8
F1.0
sg9
F0.05555555555555555
ssg12
(dp1028
g7
F0.009836065573770493
sg8
F3.0
sg9
F0.16666666666666666
ssg16
(dp1029
g7
F0.003278688524590164
sg8
F1.0
sg9
F0.05555555555555555
sssg18
I0
sg19
I18
sg20
I3
sg21
I305
ssS'Daimakaimura'
p1030
(dp1031
g3
(dp1032
g5
(dp1033
g7
F0.0012658227848101266
sg8
F1.0
sg9
F0.025
ssg10
(dp1034
g7
F0.005063291139240506
sg8
F4.0
sg9
F0.1
ssg12
(dp1035
g7
F0.010126582278481013
sg8
F8.0
sg9
F0.2
ssg14
(dp1036
g7
F0.0037974683544303796
sg8
F3.0
sg9
F0.075
sssg18
I0
sg19
I40
sg20
I8
sg21
I790
ssS'rcabinte'
p1037
(dp1038
g3
(dp1039
g5
(dp1040
g7
F0.0040887850467289715
sg8
F14.0
sg9
F0.07142857142857142
ssg10
(dp1041
g7
F0.012850467289719626
sg8
F44.0
sg9
F0.22448979591836735
ssg27
(dp1042
g7
F0.0008761682242990654
sg8
F3.0
sg9
F0.015306122448979591
ssg14
(dp1043
g7
F0.01080607476635514
sg8
F37.0
sg9
F0.18877551020408162
ssg16
(dp1044
g7
F0.004380841121495327
sg8
F15.0
sg9
F0.07653061224489796
ssg12
(dp1045
g7
F0.03300233644859813
sg8
F113.0
sg9
F0.576530612244898
sssg18
I0
sg19
I196
sg20
I113
sg21
I3424
ssS'PolatSihab'
p1046
(dp1047
g3
(dp1048
g12
(dp1049
g7
F0.0
sg8
F0.0
sg9
F0.0
sssg18
I0
sg19
I1
sg20
I0
sg21
I11
ssS'ayazarka88'
p1050
(dp1051
g3
(dp1052
g5
(dp1053
g7
F0.0008267879288962381
sg8
F2.0
sg9
F0.014388489208633094
ssg10
(dp1054
g7
F0.0033071517155849523
sg8
F8.0
sg9
F0.05755395683453238
ssg12
(dp1055
g7
F0.007441091360066143
sg8
F18.0
sg9
F0.12949640287769784
ssg14
(dp1056
g7
F0.00041339396444811904
sg8
F1.0
sg9
F0.007194244604316547
ssg16
(dp1057
g7
F0.0028937577511368336
sg8
F7.0
sg9
F0.050359712230215826
sssg18
I0
sg19
I139
sg20
I18
sg21
I2419
ssS'HamishJWyatt'
p1058
(dp1059
g3
(dp1060
g5
(dp1061
g7
F0.005045140732873075
sg8
F19.0
sg9
F0.09644670050761421
ssg10
(dp1062
g7
F0.050982474774296335
sg8
F192.0
sg9
F0.9746192893401016
ssg27
(dp1063
g7
F0.0161975570897504
sg8
F61.0
sg9
F0.3096446700507614
ssg14
(dp1064
g7
F0.050982474774296335
sg8
F192.0
sg9
F0.9746192893401016
ssg16
(dp1065
g7
F0.0010621348911311736
sg8
F4.0
sg9
F0.02030456852791878
ssg12
(dp1066
g7
F0.12426978226234732
sg8
F468.0
sg9
F2.3756345177664975
sssg18
I0
sg19
I197
sg20
I468
sg21
I3766
ssS'sambaravioli'
p1067
(dp1068
g109
I0
sg110
I194
sg111
I3480
sg112
I120
sg113
(dp1069
g126
(dp1070
g117
F0.034482758620689655
sg118
F120.0
sg119
F0.6185567010309279
ssg115
(dp1071
g117
F0.0034482758620689655
sg118
F12.0
sg119
F0.061855670103092786
ssg120
(dp1072
g117
F0.014942528735632184
sg118
F52.0
sg119
F0.26804123711340205
ssg122
(dp1073
g117
F0.0008620689655172414
sg118
F3.0
sg119
F0.015463917525773196
ssg124
(dp1074
g117
F0.014655172413793103
sg118
F51.0
sg119
F0.26288659793814434
ssg432
(dp1075
g117
F0.0005747126436781609
sg118
F2.0
sg119
F0.010309278350515464
ssssS'JofreCarnicer'
p1076
(dp1077
g3
(dp1078
g5
(dp1079
g7
F0.0027124773960217
sg8
F6.0
sg9
F0.04580152671755725
ssg10
(dp1080
g7
F0.0189873417721519
sg8
F42.0
sg9
F0.32061068702290074
ssg12
(dp1081
g7
F0.04113924050632911
sg8
F91.0
sg9
F0.6946564885496184
ssg14
(dp1082
g7
F0.018535262206148283
sg8
F41.0
sg9
F0.31297709923664124
ssg16
(dp1083
g7
F0.0009041591320072332
sg8
F2.0
sg9
F0.015267175572519083
sssg18
I0
sg19
I131
sg20
I91
sg21
I2212
ssS'impactdottech'
p1084
(dp1085
g3
(dp1086
g5
(dp1087
g7
F0.001367053998632946
sg8
F4.0
sg9
F0.021739130434782608
ssg10
(dp1088
g7
F0.00683526999316473
sg8
F20.0
sg9
F0.10869565217391304
ssg12
(dp1089
g7
F0.01674641148325359
sg8
F49.0
sg9
F0.266304347826087
ssg14
(dp1090
g7
F0.0023923444976076554
sg8
F7.0
sg9
F0.03804347826086957
ssg16
(dp1091
g7
F0.006151742993848257
sg8
F18.0
sg9
F0.09782608695652174
sssg18
I0
sg19
I184
sg20
I49
sg21
I2926
ssS'lectureverb'
p1092
(dp1093
g3
(dp1094
g5
(dp1095
g7
F0.0041459369817578775
sg8
F10.0
sg9
F0.0546448087431694
ssg10
(dp1096
g7
F0.002902155887230514
sg8
F7.0
sg9
F0.03825136612021858
ssg12
(dp1097
g7
F0.010364842454394693
sg8
F25.0
sg9
F0.1366120218579235
ssg14
(dp1098
g7
F0.0008291873963515755
sg8
F2.0
sg9
F0.01092896174863388
ssg16
(dp1099
g7
F0.0024875621890547263
sg8
F6.0
sg9
F0.03278688524590164
sssg18
I0
sg19
I183
sg20
I25
sg21
I2412
ssS'schulte_stef'
p1100
(dp1101
g3
(dp1102
g5
(dp1103
g7
F0.0028555111364934323
sg8
F15.0
sg9
F0.08287292817679558
ssg10
(dp1104
g7
F0.00266514372739387
sg8
F14.0
sg9
F0.07734806629834254
ssg27
(dp1105
g7
F0.0003807348181991243
sg8
F2.0
sg9
F0.011049723756906077
ssg14
(dp1106
g7
F0.0003807348181991243
sg8
F2.0
sg9
F0.011049723756906077
ssg16
(dp1107
g7
F0.00019036740909956216
sg8
F1.0
sg9
F0.0055248618784530384
ssg12
(dp1108
g7
F0.006472491909385114
sg8
F34.0
sg9
F0.1878453038674033
sssg18
I0
sg19
I181
sg20
I34
sg21
I5253
ssS'OVESCO'
p1109
(dp1110
g3
(dp1111
g5
(dp1112
g7
F0.001397428731134712
sg8
F5.0
sg9
F0.02512562814070352
ssg10
(dp1113
g7
F0.019843487982112912
sg8
F71.0
sg9
F0.35678391959798994
ssg27
(dp1114
g7
F0.0005589714924538849
sg8
F2.0
sg9
F0.010050251256281407
ssg14
(dp1115
g7
F0.0184460592509782
sg8
F66.0
sg9
F0.3316582914572864
ssg16
(dp1116
g7
F0.002515371716042482
sg8
F9.0
sg9
F0.04522613065326633
ssg12
(dp1117
g7
F0.04276131917272219
sg8
F153.0
sg9
F0.7688442211055276
sssg18
I0
sg19
I199
sg20
I153
sg21
I3578
ssS'Vibeka'
p1118
(dp1119
g3
(dp1120
g5
(dp1121
g7
F0.0026392961876832845
sg8
F9.0
sg9
F0.046632124352331605
ssg10
(dp1122
g7
F0.011143695014662757
sg8
F38.0
sg9
F0.19689119170984457
ssg12
(dp1123
g7
F0.024926686217008796
sg8
F85.0
sg9
F0.44041450777202074
ssg14
(dp1124
g7
F0.00967741935483871
sg8
F33.0
sg9
F0.17098445595854922
ssg16
(dp1125
g7
F0.001466275659824047
sg8
F5.0
sg9
F0.025906735751295335
sssg18
I0
sg19
I193
sg20
I85
sg21
I3410
ssS'Blinis'
p1126
(dp1127
g3
(dp1128
g12
(dp1129
g7
F0.0
sg8
F0.0
sg9
F0.0
sssg18
I0
sg19
I26
sg20
I0
sg21
I318
ssS'thetippytopblog'
p1130
(dp1131
g3
(dp1132
g5
(dp1133
g7
F0.006513809275664409
sg8
F25.0
sg9
F0.12755102040816327
ssg10
(dp1134
g7
F0.0018238665971860343
sg8
F7.0
sg9
F0.03571428571428571
ssg27
(dp1135
g7
F0.0010422094841063053
sg8
F4.0
sg9
F0.02040816326530612
ssg14
(dp1136
g7
F0.000781657113079729
sg8
F3.0
sg9
F0.015306122448979591
ssg16
(dp1137
g7
F0.0010422094841063053
sg8
F4.0
sg9
F0.02040816326530612
ssg12
(dp1138
g7
F0.011203751954142784
sg8
F43.0
sg9
F0.2193877551020408
sssg18
I0
sg19
I196
sg20
I43
sg21
I3838
ssS'marialaxa541'
p1139
(dp1140
g3
(dp1141
g12
(dp1142
g7
F0.0
sg8
F0.0
sg9
F0.0
sssg18
I0
sg19
I181
sg20
I0
sg21
I4168
ssS'bulentozel'
p1143
(dp1144
g3
(dp1145
g5
(dp1146
g7
F0.005263157894736842
sg8
F2.0
sg9
F0.05405405405405406
ssg10
(dp1147
g7
F0.002631578947368421
sg8
F1.0
sg9
F0.02702702702702703
ssg12
(dp1148
g7
F0.010526315789473684
sg8
F4.0
sg9
F0.10810810810810811
ssg14
(dp1149
g7
F0.002631578947368421
sg8
F1.0
sg9
F0.02702702702702703
sssg18
I0
sg19
I37
sg20
I4
sg21
I380
ssS'EcologicalEcon'
p1150
(dp1151
g3
(dp1152
g5
(dp1153
g7
F0.0022172949002217295
sg8
F6.0
sg9
F0.03550295857988166
ssg10
(dp1154
g7
F0.046193643754619367
sg8
F125.0
sg9
F0.7396449704142012
ssg27
(dp1155
g7
F0.0033259423503325942
sg8
F9.0
sg9
F0.05325443786982249
ssg14
(dp1156
g7
F0.04249815225424981
sg8
F115.0
sg9
F0.6804733727810651
ssg16
(dp1157
g7
F0.008499630450849963
sg8
F23.0
sg9
F0.13609467455621302
ssg12
(dp1158
g7
F0.10273466371027347
sg8
F278.0
sg9
F1.6449704142011834
sssg18
I0
sg19
I169
sg20
I278
sg21
I2706
ssS'CoeGSS'
p1159
(dp1160
g109
I0
sg110
I187
sg111
I3113
sg112
I51
sg113
(dp1161
g126
(dp1162
g117
F0.01638291037584324
sg118
F51.0
sg119
F0.2727272727272727
ssg115
(dp1163
g117
F0.004818503051718599
sg118
F15.0
sg119
F0.08021390374331551
ssg120
(dp1164
g117
F0.00513973658849984
sg118
F16.0
sg119
F0.0855614973262032
ssg122
(dp1165
g117
F0.00032123353678124
sg118
F1.0
sg119
F0.0053475935828877
ssg124
(dp1166
g117
F0.0035335689045936395
sg118
F11.0
sg119
F0.058823529411764705
ssg432
(dp1167
g117
F0.00256986829424992
sg118
F8.0
sg119
F0.0427807486631016
ssssS'CECHR_UoD'
p1168
(dp1169
g3
(dp1170
g5
(dp1171
g7
F0.0021347248576850096
sg8
F9.0
sg9
F0.04522613065326633
ssg10
(dp1172
g7
F0.026565464895635674
sg8
F112.0
sg9
F0.5628140703517588
ssg12
(dp1173
g7
F0.058823529411764705
sg8
F248.0
sg9
F1.2462311557788945
ssg14
(dp1174
g7
F0.023481973434535106
sg8
F99.0
sg9
F0.49748743718592964
ssg16
(dp1175
g7
F0.006641366223908918
sg8
F28.0
sg9
F0.1407035175879397
sssg18
I0
sg19
I199
sg20
I248
sg21
I4216
ssS'SFL_nl'
p1176
(dp1177
g3
(dp1178
g5
(dp1179
g7
F0.006830601092896175
sg8
F15.0
sg9
F0.11450381679389313
ssg10
(dp1180
g7
F0.011384335154826957
sg8
F25.0
sg9
F0.19083969465648856
ssg27
(dp1181
g7
F0.007741347905282332
sg8
F17.0
sg9
F0.1297709923664122
ssg14
(dp1182
g7
F0.010473588342440802
sg8
F23.0
sg9
F0.17557251908396945
ssg16
(dp1183
g7
F0.007285974499089253
sg8
F16.0
sg9
F0.12213740458015267
ssg12
(dp1184
g7
F0.04371584699453552
sg8
F96.0
sg9
F0.732824427480916
sssg18
I0
sg19
I131
sg20
I96
sg21
I2196
ssS'OrpheusEU'
p1185
(dp1186
g3
(dp1187
g5
(dp1188
g7
F0.0008906305664410402
sg8
F5.0
sg9
F0.02512562814070352
ssg10
(dp1189
g7
F0.005343783398646241
sg8
F30.0
sg9
F0.1507537688442211
ssg12
(dp1190
g7
F0.011578197363733523
sg8
F65.0
sg9
F0.32663316582914576
ssg14
(dp1191
g7
F0.005165657285358034
sg8
F29.0
sg9
F0.1457286432160804
ssg16
(dp1192
g7
F0.00017812611328820805
sg8
F1.0
sg9
F0.005025125628140704
sssg18
I0
sg19
I199
sg20
I65
sg21
I5614
ssS'dungnguyenuk'
p1193
(dp1194
g3
(dp1195
g5
(dp1196
g7
F0.003723624327678941
sg8
F9.0
sg9
F0.07377049180327869
ssg10
(dp1197
g7
F0.0008274720728175424
sg8
F2.0
sg9
F0.01639344262295082
ssg27
(dp1198
g7
F0.0008274720728175424
sg8
F2.0
sg9
F0.01639344262295082
ssg16
(dp1199
g7
F0.0008274720728175424
sg8
F2.0
sg9
F0.01639344262295082
ssg12
(dp1200
g7
F0.006206040546131568
sg8
F15.0
sg9
F0.12295081967213115
sssg18
I0
sg19
I122
sg20
I15
sg21
I2417
ssS'Demon666Yt'
p1201
(dp1202
g3
(dp1203
g12
(dp1204
g7
F0.0
sg8
F0.0
sg9
F0.0
sssg18
I0
sg19
I21
sg20
I0
sg21
I211
ssS'RRytenband'
p1205
(dp1206
g3
(dp1207
g10
(dp1208
g7
F0.0028653295128939827
sg8
F1.0
sg9
F0.047619047619047616
ssg12
(dp1209
g7
F0.0057306590257879654
sg8
F2.0
sg9
F0.09523809523809523
ssg16
(dp1210
g7
F0.0028653295128939827
sg8
F1.0
sg9
F0.047619047619047616
sssg18
I0
sg19
I21
sg20
I2
sg21
I349
ssS'enzomanzo1'
p1211
(dp1212
g3
(dp1213
g5
(dp1214
g7
F0.005376344086021506
sg8
F1.0
sg9
F0.08333333333333333
ssg12
(dp1215
g7
F0.005376344086021506
sg8
F1.0
sg9
F0.08333333333333333
sssg18
I0
sg19
I12
sg20
I1
sg21
I186
ssS'jimmypaulin'
p1216
(dp1217
g3
(dp1218
g5
(dp1219
g7
F0.002014098690835851
sg8
F6.0
sg9
F0.03076923076923077
ssg10
(dp1220
g7
F0.000671366230278617
sg8
F2.0
sg9
F0.010256410256410256
ssg12
(dp1221
g7
F0.003356831151393085
sg8
F10.0
sg9
F0.05128205128205128
ssg16
(dp1222
g7
F0.000671366230278617
sg8
F2.0
sg9
F0.010256410256410256
sssg18
I0
sg19
I195
sg20
I10
sg21
I2979
ssS'Andrewbrum'
p1223
(dp1224
g3
(dp1225
g5
(dp1226
g7
F0.008441362677117878
sg8
F28.0
sg9
F0.14
ssg10
(dp1227
g7
F0.0012059089538739825
sg8
F4.0
sg9
F0.02
ssg12
(dp1228
g7
F0.010853180584865842
sg8
F36.0
sg9
F0.18
ssg16
(dp1229
g7
F0.0012059089538739825
sg8
F4.0
sg9
F0.02
sssg18
I0
sg19
I200
sg20
I36
sg21
I3317
ssS'giacomolivan'
p1230
(dp1231
g3
(dp1232
g5
(dp1233
g7
F0.0008058017727639
sg8
F1.0
sg9
F0.012195121951219513
ssg12
(dp1234
g7
F0.0008058017727639
sg8
F1.0
sg9
F0.012195121951219513
sssg18
I0
sg19
I82
sg20
I1
sg21
I1241
ssS'PEP4UM'
p1235
(dp1236
g3
(dp1237
g5
(dp1238
g7
F0.0012919896640826874
sg8
F3.0
sg9
F0.0234375
ssg10
(dp1239
g7
F0.0017226528854435831
sg8
F4.0
sg9
F0.03125
ssg12
(dp1240
g7
F0.004306632213608958
sg8
F10.0
sg9
F0.078125
ssg14
(dp1241
g7
F0.0004306632213608958
sg8
F1.0
sg9
F0.0078125
ssg16
(dp1242
g7
F0.0008613264427217916
sg8
F2.0
sg9
F0.015625
sssg18
I0
sg19
I128
sg20
I10
sg21
I2322
ssS'CasaEdelVicenza'
p1243
(dp1244
g3
(dp1245
g5
(dp1246
g7
F0.012048192771084338
sg8
F1.0
sg9
F0.2
ssg10
(dp1247
g7
F0.012048192771084338
sg8
F1.0
sg9
F0.2
ssg12
(dp1248
g7
F0.024096385542168676
sg8
F2.0
sg9
F0.4
sssg18
I0
sg19
I5
sg20
I2
sg21
I83
ssS'TorreyShine'
p1249
(dp1250
g3
(dp1251
g12
(dp1252
g7
F0.0
sg8
F0.0
sg9
F0.0
sssg18
I0
sg19
I12
sg20
I0
sg21
I154
ssS'IAmJeffEmmerson'
p1253
(dp1254
g3
(dp1255
g5
(dp1256
g7
F0.0014342058085335247
sg8
F4.0
sg9
F0.022988505747126436
ssg12
(dp1257
g7
F0.0014342058085335247
sg8
F4.0
sg9
F0.022988505747126436
sssg18
I0
sg19
I174
sg20
I4
sg21
I2789
ssS'EnviroNews'
p1258
(dp1259
g3
(dp1260
g5
(dp1261
g7
F0.00028506271379703536
sg8
F1.0
sg9
F0.00510204081632653
ssg10
(dp1262
g7
F0.00427594070695553
sg8
F15.0
sg9
F0.07653061224489796
ssg12
(dp1263
g7
F0.00855188141391106
sg8
F30.0
sg9
F0.15306122448979592
ssg14
(dp1264
g7
F0.003990877993158495
sg8
F14.0
sg9
F0.07142857142857142
sssg18
I0
sg19
I196
sg20
I30
sg21
I3508
ssS'SunilMalhotra'
p1265
(dp1266
g3
(dp1267
g5
(dp1268
g7
F0.005044510385756677
sg8
F17.0
sg9
F0.08994708994708994
ssg10
(dp1269
g7
F0.0002967359050445104
sg8
F1.0
sg9
F0.005291005291005291
ssg27
(dp1270
g7
F0.0002967359050445104
sg8
F1.0
sg9
F0.005291005291005291
ssg14
(dp1271
g7
F0.0002967359050445104
sg8
F1.0
sg9
F0.005291005291005291
ssg12
(dp1272
g7
F0.005934718100890208
sg8
F20.0
sg9
F0.10582010582010581
sssg18
I0
sg19
I189
sg20
I20
sg21
I3370
ssS'oikonomopoulo14'
p1273
(dp1274
g3
(dp1275
g12
(dp1276
g7
F0.0
sg8
F0.0
sg9
F0.0
sssg18
I0
sg19
I1
sg20
I0
sg21
I13
ssS'CriptodivisasMx'
p1277
(dp1278
g3
(dp1279
g5
(dp1280
g7
F0.004070950857807502
sg8
F14.0
sg9
F0.0748663101604278
ssg10
(dp1281
g7
F0.002907822041291073
sg8
F10.0
sg9
F0.053475935828877004
ssg27
(dp1282
g7
F0.0002907822041291073
sg8
F1.0
sg9
F0.0053475935828877
ssg14
(dp1283
g7
F0.0011631288165164292
sg8
F4.0
sg9
F0.0213903743315508
ssg16
(dp1284
g7
F0.0014539110206455365
sg8
F5.0
sg9
F0.026737967914438502
ssg12
(dp1285
g7
F0.009886594940389648
sg8
F34.0
sg9
F0.18181818181818182
sssg18
I0
sg19
I187
sg20
I34
sg21
I3439
ssS'bergautier'
p1286
(dp1287
g3
(dp1288
g5
(dp1289
g7
F0.0035046728971962616
sg8
F6.0
sg9
F0.047244094488188976
ssg10
(dp1290
g7
F0.007009345794392523
sg8
F12.0
sg9
F0.09448818897637795
ssg12
(dp1291
g7
F0.015771028037383176
sg8
F27.0
sg9
F0.2125984251968504
ssg14
(dp1292
g7
F0.0005841121495327102
sg8
F1.0
sg9
F0.007874015748031496
ssg16
(dp1293
g7
F0.004672897196261682
sg8
F8.0
sg9
F0.06299212598425197
sssg18
I0
sg19
I127
sg20
I27
sg21
I1712
ssS'AlineCosette'
p1294
(dp1295
g3
(dp1296
g5
(dp1297
g7
F0.004929577464788733
sg8
F7.0
sg9
F0.07692307692307693
ssg10
(dp1298
g7
F0.002112676056338028
sg8
F3.0
sg9
F0.03296703296703297
ssg12
(dp1299
g7
F0.008450704225352112
sg8
F12.0
sg9
F0.13186813186813187
ssg16
(dp1300
g7
F0.0014084507042253522
sg8
F2.0
sg9
F0.02197802197802198
sssg18
I0
sg19
I91
sg20
I12
sg21
I1420
ssS'hamzaz'
p1301
(dp1302
g3
(dp1303
g10
(dp1304
g7
F0.007974481658692184
sg8
F5.0
sg9
F0.125
ssg12
(dp1305
g7
F0.017543859649122806
sg8
F11.0
sg9
F0.275
ssg14
(dp1306
g7
F0.006379585326953748
sg8
F4.0
sg9
F0.1
ssg16
(dp1307
g7
F0.003189792663476874
sg8
F2.0
sg9
F0.05
sssg18
I0
sg19
I40
sg20
I11
sg21
I627
ssS'alvarofenomeno'
p1308
(dp1309
g3
(dp1310
g12
(dp1311
g7
F0.0
sg8
F0.0
sg9
F0.0
sssg18
I0
sg19
I10
sg20
I0
sg21
I133
ssS'kiradot_'
p1312
(dp1313
g3
(dp1314
g5
(dp1315
g7
F0.0004389815627743635
sg8
F1.0
sg9
F0.0056179775280898875
ssg10
(dp1316
g7
F0.0004389815627743635
sg8
F1.0
sg9
F0.0056179775280898875
ssg12
(dp1317
g7
F0.000877963125548727
sg8
F2.0
sg9
F0.011235955056179775
sssg18
I0
sg19
I178
sg20
I2
sg21
I2278
ssS'AndreaRoventini'
p1318
(dp1319
g3
(dp1320
g5
(dp1321
g7
F0.0034223134839151265
sg8
F10.0
sg9
F0.056818181818181816
ssg10
(dp1322
g7
F0.013347022587268994
sg8
F39.0
sg9
F0.2215909090909091
ssg27
(dp1323
g7
F0.0027378507871321013
sg8
F8.0
sg9
F0.045454545454545456
ssg14
(dp1324
g7
F0.012320328542094456
sg8
F36.0
sg9
F0.20454545454545456
ssg16
(dp1325
g7
F0.0013689253935660506
sg8
F4.0
sg9
F0.022727272727272728
ssg12
(dp1326
g7
F0.033196440793976725
sg8
F97.0
sg9
F0.5511363636363636
sssg18
I0
sg19
I176
sg20
I97
sg21
I2922
ssS'egbr916'
p1327
(dp1328
g3
(dp1329
g5
(dp1330
g7
F0.0003273322422258593
sg8
F1.0
sg9
F0.005235602094240838
ssg10
(dp1331
g7
F0.0006546644844517185
sg8
F2.0
sg9
F0.010471204188481676
ssg12
(dp1332
g7
F0.001309328968903437
sg8
F4.0
sg9
F0.020942408376963352
ssg16
(dp1333
g7
F0.0003273322422258593
sg8
F1.0
sg9
F0.005235602094240838
sssg18
I0
sg19
I191
sg20
I4
sg21
I3055
ssS'OnePlanetParis'
p1334
(dp1335
g3
(dp1336
g5
(dp1337
g7
F0.0026690391459074734
sg8
F6.0
sg9
F0.05
ssg10
(dp1338
g7
F0.056494661921708184
sg8
F127.0
sg9
F1.0583333333333333
ssg27
(dp1339
g7
F0.009786476868327402
sg8
F22.0
sg9
F0.18333333333333332
ssg14
(dp1340
g7
F0.056494661921708184
sg8
F127.0
sg9
F1.0583333333333333
ssg16
(dp1341
g7
F0.0013345195729537367
sg8
F3.0
sg9
F0.025
ssg12
(dp1342
g7
F0.12677935943060498
sg8
F285.0
sg9
F2.375
sssg18
I0
sg19
I120
sg20
I285
sg21
I2248
ssS'claudia_mihai'
p1343
(dp1344
g3
(dp1345
g5
(dp1346
g7
F0.004195804195804196
sg8
F9.0
sg9
F0.04712041884816754
ssg10
(dp1347
g7
F0.005594405594405594
sg8
F12.0
sg9
F0.06282722513089005
ssg12
(dp1348
g7
F0.015384615384615385
sg8
F33.0
sg9
F0.17277486910994763
ssg14
(dp1349
g7
F0.0013986013986013986
sg8
F3.0
sg9
F0.015706806282722512
ssg16
(dp1350
g7
F0.004195804195804196
sg8
F9.0
sg9
F0.04712041884816754
sssg18
I0
sg19
I191
sg20
I33
sg21
I2145
ssS'FortGroupYK'
p1351
(dp1352
g3
(dp1353
g12
(dp1354
g7
F0.0
sg8
F0.0
sg9
F0.0
sssg18
I0
sg19
I5
sg20
I0
sg21
I30
ssS'iacobet79'
p1355
(dp1356
g3
(dp1357
g12
(dp1358
g7
F0.0
sg8
F0.0
sg9
F0.0
sssg18
I0
sg19
I1
sg20
I0
sg21
I6
ssS'pdjahnke'
p1359
(dp1360
g3
(dp1361
g5
(dp1362
g7
F0.0015077271013946476
sg8
F4.0
sg9
F0.026490066225165563
ssg10
(dp1363
g7
F0.010177157934413872
sg8
F27.0
sg9
F0.17880794701986755
ssg27
(dp1364
g7
F0.0011307953260459858
sg8
F3.0
sg9
F0.019867549668874173
ssg14
(dp1365
g7
F0.007538635506973238
sg8
F20.0
sg9
F0.13245033112582782
ssg16
(dp1366
g7
F0.005653976630229929
sg8
F15.0
sg9
F0.09933774834437085
ssg12
(dp1367
g7
F0.02600829249905767
sg8
F69.0
sg9
F0.45695364238410596
sssg18
I0
sg19
I151
sg20
I69
sg21
I2653
ssS'IASS_Potsdam'
p1368
(dp1369
g3
(dp1370
g5
(dp1371
g7
F0.0022927015666794038
sg8
F6.0
sg9
F0.05172413793103448
ssg10
(dp1372
g7
F0.021780664883454336
sg8
F57.0
sg9
F0.49137931034482757
ssg27
(dp1373
g7
F0.0011463507833397019
sg8
F3.0
sg9
F0.02586206896551724
ssg14
(dp1374
g7
F0.016813144822315627
sg8
F44.0
sg9
F0.3793103448275862
ssg16
(dp1375
g7
F0.006878104700038212
sg8
F18.0
sg9
F0.15517241379310345
ssg12
(dp1376
g7
F0.04891096675582728
sg8
F128.0
sg9
F1.103448275862069
sssg18
I0
sg19
I116
sg20
I128
sg21
I2617
ssS'DecentralizedEn'
p1377
(dp1378
g3
(dp1379
g5
(dp1380
g7
F0.00039984006397441024
sg8
F1.0
sg9
F0.005714285714285714
ssg10
(dp1381
g7
F0.0007996801279488205
sg8
F2.0
sg9
F0.011428571428571429
ssg12
(dp1382
g7
F0.0023990403838464614
sg8
F6.0
sg9
F0.03428571428571429
ssg14
(dp1383
g7
F0.00039984006397441024
sg8
F1.0
sg9
F0.005714285714285714
ssg16
(dp1384
g7
F0.0007996801279488205
sg8
F2.0
sg9
F0.011428571428571429
sssg18
I0
sg19
I175
sg20
I6
sg21
I2501
ssS'Mattia_Guerini'
p1385
(dp1386
g3
(dp1387
g5
(dp1388
g7
F0.001447178002894356
sg8
F4.0
sg9
F0.024242424242424242
ssg10
(dp1389
g7
F0.01447178002894356
sg8
F40.0
sg9
F0.24242424242424243
ssg27
(dp1390
g7
F0.005426917510853835
sg8
F15.0
sg9
F0.09090909090909091
ssg14
(dp1391
g7
F0.011939218523878437
sg8
F33.0
sg9
F0.2
ssg16
(dp1392
g7
F0.004703328509406657
sg8
F13.0
sg9
F0.07878787878787878
ssg12
(dp1393
g7
F0.03798842257597684
sg8
F105.0
sg9
F0.6363636363636364
sssg18
I0
sg19
I165
sg20
I105
sg21
I2764
ssS'galeanojav'
p1394
(dp1395
g3
(dp1396
g10
(dp1397
g7
F0.0027210884353741495
sg8
F2.0
sg9
F0.0425531914893617
ssg12
(dp1398
g7
F0.005442176870748299
sg8
F4.0
sg9
F0.0851063829787234
ssg16
(dp1399
g7
F0.0027210884353741495
sg8
F2.0
sg9
F0.0425531914893617
sssg18
I0
sg19
I47
sg20
I4
sg21
I735
ssS'MorganBeaugrand'
p1400
(dp1401
g3
(dp1402
g12
(dp1403
g7
F0.0
sg8
F0.0
sg9
F0.0
sssg18
I0
sg19
I87
sg20
I0
sg21
I1180
ssS'SSEinitiative'
p1404
(dp1405
g3
(dp1406
g5
(dp1407
g7
F0.0024070607114201658
sg8
F9.0
sg9
F0.04522613065326633
ssg10
(dp1408
g7
F0.045199251136667555
sg8
F169.0
sg9
F0.8492462311557789
ssg27
(dp1409
g7
F0.0066862797539449055
sg8
F25.0
sg9
F0.12562814070351758
ssg14
(dp1410
g7
F0.0425247392350896
sg8
F159.0
sg9
F0.7989949748743719
ssg16
(dp1411
g7
F0.009093340465365071
sg8
F34.0
sg9
F0.1708542713567839
ssg12
(dp1412
g7
F0.1059106713024873
sg8
F396.0
sg9
F1.9899497487437185
sssg18
I0
sg19
I199
sg20
I396
sg21
I3739
ssS'BradZarnett'
p1413
(dp1414
g3
(dp1415
g5
(dp1416
g7
F0.0044720496894409935
sg8
F18.0
sg9
F0.09
ssg10
(dp1417
g7
F0.014409937888198757
sg8
F58.0
sg9
F0.29
ssg27
(dp1418
g7
F0.0002484472049689441
sg8
F1.0
sg9
F0.005
ssg14
(dp1419
g7
F0.013416149068322981
sg8
F54.0
sg9
F0.27
ssg16
(dp1420
g7
F0.0029813664596273293
sg8
F12.0
sg9
F0.06
ssg12
(dp1421
g7
F0.035527950310559005
sg8
F143.0
sg9
F0.715
sssg18
I0
sg19
I200
sg20
I143
sg21
I4025
ssS'marcobardoscia'
p1422
(dp1423
g109
I0
sg110
I177
sg111
I2430
sg112
I6
sg113
(dp1424
g115
(dp1425
g117
F0.0024691358024691358
sg118
F6.0
sg119
F0.03389830508474576
ssg126
(dp1426
g117
F0.0024691358024691358
sg118
F6.0
sg119
F0.03389830508474576
ssssS'amsterdam_bill'
p1427
(dp1428
g3
(dp1429
g5
(dp1430
g7
F0.0013698630136986301
sg8
F6.0
sg9
F0.03409090909090909
ssg10
(dp1431
g7
F0.0009132420091324201
sg8
F4.0
sg9
F0.022727272727272728
ssg12
(dp1432
g7
F0.0031963470319634705
sg8
F14.0
sg9
F0.07954545454545454
ssg14
(dp1433
g7
F0.0009132420091324201
sg8
F4.0
sg9
F0.022727272727272728
sssg18
I0
sg19
I176
sg20
I14
sg21
I4380
ssS'TehRaio'
p1434
(dp1435
g3
(dp1436
g5
(dp1437
g7
F0.004023605150214592
sg8
F15.0
sg9
F0.08875739644970414
ssg10
(dp1438
g7
F0.0018776824034334764
sg8
F7.0
sg9
F0.04142011834319527
ssg27
(dp1439
g7
F0.001072961373390558
sg8
F4.0
sg9
F0.023668639053254437
ssg14
(dp1440
g7
F0.001072961373390558
sg8
F4.0
sg9
F0.023668639053254437
ssg16
(dp1441
g7
F0.0013412017167381974
sg8
F5.0
sg9
F0.029585798816568046
ssg12
(dp1442
g7
F0.009388412017167383
sg8
F35.0
sg9
F0.20710059171597633
sssg18
I0
sg19
I169
sg20
I35
sg21
I3728
ssS'juancerdap'
p1443
(dp1444
g3
(dp1445
g10
(dp1446
g7
F0.0025974025974025974
sg8
F1.0
sg9
F0.04
ssg12
(dp1447
g7
F0.0025974025974025974
sg8
F1.0
sg9
F0.04
sssg18
I0
sg19
I25
sg20
I1
sg21
I385
ssS'Beyond_Ratings'
p1448
(dp1449
g3
(dp1450
g5
(dp1451
g7
F0.003068425897514575
sg8
F10.0
sg9
F0.05434782608695652
ssg10
(dp1452
g7
F0.019331083154341823
sg8
F63.0
sg9
F0.3423913043478261
ssg27
(dp1453
g7
F0.0046026388462718625
sg8
F15.0
sg9
F0.08152173913043478
ssg14
(dp1454
g7
F0.019331083154341823
sg8
F63.0
sg9
F0.3423913043478261
ssg16
(dp1455
g7
F0.0027615833077631177
sg8
F9.0
sg9
F0.04891304347826087
ssg12
(dp1456
g7
F0.0490948143602332
sg8
F160.0
sg9
F0.8695652173913043
sssg18
I0
sg19
I184
sg20
I160
sg21
I3259
ssS'bandigsm'
p1457
(dp1458
g3
(dp1459
g5
(dp1460
g7
F0.005813953488372093
sg8
F2.0
sg9
F0.08695652173913043
ssg10
(dp1461
g7
F0.00872093023255814
sg8
F3.0
sg9
F0.13043478260869565
ssg12
(dp1462
g7
F0.023255813953488372
sg8
F8.0
sg9
F0.34782608695652173
ssg14
(dp1463
g7
F0.005813953488372093
sg8
F2.0
sg9
F0.08695652173913043
ssg16
(dp1464
g7
F0.0029069767441860465
sg8
F1.0
sg9
F0.043478260869565216
sssg18
I0
sg19
I23
sg20
I8
sg21
I344
ssS'Ika_Midenistis'
p1465
(dp1466
g3
(dp1467
g5
(dp1468
g7
F0.003305785123966942
sg8
F2.0
sg9
F0.041666666666666664
ssg10
(dp1469
g7
F0.001652892561983471
sg8
F1.0
sg9
F0.020833333333333332
ssg12
(dp1470
g7
F0.006611570247933884
sg8
F4.0
sg9
F0.08333333333333333
ssg14
(dp1471
g7
F0.001652892561983471
sg8
F1.0
sg9
F0.020833333333333332
sssg18
I0
sg19
I48
sg20
I4
sg21
I605
ssS'OneSongOneEarth'
p1472
(dp1473
g3
(dp1474
g5
(dp1475
g7
F0.0036968576709796672
sg8
F4.0
sg9
F0.057971014492753624
ssg10
(dp1476
g7
F0.05545286506469501
sg8
F60.0
sg9
F0.8695652173913043
ssg12
(dp1477
g7
F0.11460258780036968
sg8
F124.0
sg9
F1.7971014492753623
ssg14
(dp1478
g7
F0.05545286506469501
sg8
F60.0
sg9
F0.8695652173913043
sssg18
I0
sg19
I69
sg20
I124
sg21
I1082
ssS'Drideologie'
p1479
(dp1480
g3
(dp1481
g12
(dp1482
g7
F0.0
sg8
F0.0
sg9
F0.0
sssg18
I0
sg19
I3
sg20
I0
sg21
I48
ssS'dindjic'
p1483
(dp1484
g3
(dp1485
g5
(dp1486
g7
F0.0013568521031207597
sg8
F3.0
sg9
F0.016129032258064516
ssg10
(dp1487
g7
F0.0009045680687471732
sg8
F2.0
sg9
F0.010752688172043012
ssg27
(dp1488
g7
F0.0004522840343735866
sg8
F1.0
sg9
F0.005376344086021506
ssg16
(dp1489
g7
F0.0009045680687471732
sg8
F2.0
sg9
F0.010752688172043012
ssg12
(dp1490
g7
F0.003618272274988693
sg8
F8.0
sg9
F0.043010752688172046
sssg18
I0
sg19
I186
sg20
I8
sg21
I2211
ssS'utud_uyuseher14'
p1491
(dp1492
g3
(dp1493
g12
(dp1494
g7
F0.0
sg8
F0.0
sg9
F0.0
sssg18
I0
sg19
I27
sg20
I0
sg21
I463
ssS'Angela07261976'
p1495
(dp1496
g3
(dp1497
g10
(dp1498
g7
F0.0012053033346725592
sg8
F3.0
sg9
F0.015706806282722512
ssg12
(dp1499
g7
F0.0012053033346725592
sg8
F3.0
sg9
F0.015706806282722512
sssg18
I0
sg19
I191
sg20
I3
sg21
I2489
ssS'TMWFTE'
p1500
(dp1501
g3
(dp1502
g5
(dp1503
g7
F0.0007434944237918215
sg8
F2.0
sg9
F0.010752688172043012
ssg10
(dp1504
g7
F0.0007434944237918215
sg8
F2.0
sg9
F0.010752688172043012
ssg12
(dp1505
g7
F0.0026022304832713753
sg8
F7.0
sg9
F0.03763440860215054
ssg14
(dp1506
g7
F0.0003717472118959108
sg8
F1.0
sg9
F0.005376344086021506
ssg16
(dp1507
g7
F0.0007434944237918215
sg8
F2.0
sg9
F0.010752688172043012
sssg18
I0
sg19
I186
sg20
I7
sg21
I2690
ssS'Falco810'
p1508
(dp1509
g3
(dp1510
g12
(dp1511
g7
F0.0
sg8
F0.0
sg9
F0.0
sssg18
I0
sg19
I4
sg20
I0
sg21
I26
ssS'AnneMur16630871'
p1512
(dp1513
g3
(dp1514
g12
(dp1515
g7
F0.0
sg8
F0.0
sg9
F0.0
sssg18
I0
sg19
I187
sg20
I0
sg21
I2562
ssS'PatrikReisinger'
p1516
(dp1517
g3
(dp1518
g5
(dp1519
g7
F0.007797270955165692
sg8
F4.0
sg9
F0.10810810810810811
ssg12
(dp1520
g7
F0.007797270955165692
sg8
F4.0
sg9
F0.10810810810810811
sssg18
I0
sg19
I37
sg20
I4
sg21
I513
ssS'yuliay'
p1521
(dp1522
g3
(dp1523
g5
(dp1524
g7
F0.0023453532688361184
sg8
F8.0
sg9
F0.04060913705583756
ssg10
(dp1525
g7
F0.032541776605101144
sg8
F111.0
sg9
F0.5634517766497462
ssg27
(dp1526
g7
F0.0020521841102316037
sg8
F7.0
sg9
F0.03553299492385787
ssg14
(dp1527
g7
F0.03136909997068309
sg8
F107.0
sg9
F0.5431472081218274
ssg16
(dp1528
g7
F0.0038111990618586926
sg8
F13.0
sg9
F0.06598984771573604
ssg12
(dp1529
g7
F0.07211961301671065
sg8
F246.0
sg9
F1.248730964467005
sssg18
I0
sg19
I197
sg20
I246
sg21
I3411
ssS'LDNinst'
p1530
(dp1531
g3
(dp1532
g5
(dp1533
g7
F0.00922509225092251
sg8
F10.0
sg9
F0.14084507042253522
ssg10
(dp1534
g7
F0.005535055350553505
sg8
F6.0
sg9
F0.08450704225352113
ssg27
(dp1535
g7
F0.0009225092250922509
sg8
F1.0
sg9
F0.014084507042253521
ssg14
(dp1536
g7
F0.005535055350553505
sg8
F6.0
sg9
F0.08450704225352113
ssg12
(dp1537
g7
F0.021217712177121772
sg8
F23.0
sg9
F0.323943661971831
sssg18
I0
sg19
I71
sg20
I23
sg21
I1084
ssS'davidecellai'
p1538
(dp1539
g3
(dp1540
g5
(dp1541
g7
F0.0016739203213927017
sg8
F5.0
sg9
F0.026455026455026454
ssg10
(dp1542
g7
F0.006026113157013726
sg8
F18.0
sg9
F0.09523809523809523
ssg12
(dp1543
g7
F0.013056578506863073
sg8
F39.0
sg9
F0.20634920634920634
ssg14
(dp1544
g7
F0.0013391362571141614
sg8
F4.0
sg9
F0.021164021164021163
ssg16
(dp1545
g7
F0.004017408771342484
sg8
F12.0
sg9
F0.06349206349206349
sssg18
I0
sg19
I189
sg20
I39
sg21
I2987
ssS'AppDeveloperHue'
p1546
(dp1547
g3
(dp1548
g5
(dp1549
g7
F0.0011737089201877935
sg8
F3.0
sg9
F0.02
ssg10
(dp1550
g7
F0.0003912363067292645
sg8
F1.0
sg9
F0.006666666666666667
ssg12
(dp1551
g7
F0.001564945226917058
sg8
F4.0
sg9
F0.02666666666666667
sssg18
I0
sg19
I150
sg20
I4
sg21
I2556
ssS'SusFinLab'
p1552
(dp1553
g3
(dp1554
g5
(dp1555
g7
F0.004437869822485207
sg8
F6.0
sg9
F0.07407407407407407
ssg10
(dp1556
g7
F0.017011834319526627
sg8
F23.0
sg9
F0.2839506172839506
ssg27
(dp1557
g7
F0.008875739644970414
sg8
F12.0
sg9
F0.14814814814814814
ssg14
(dp1558
g7
F0.016272189349112426
sg8
F22.0
sg9
F0.2716049382716049
ssg16
(dp1559
g7
F0.01257396449704142
sg8
F17.0
sg9
F0.20987654320987653
ssg12
(dp1560
g7
F0.05917159763313609
sg8
F80.0
sg9
F0.9876543209876543
sssg18
I0
sg19
I81
sg20
I80
sg21
I1352
ssS'laurentbaheux'
p1561
(dp1562
g3
(dp1563
g5
(dp1564
g7
F0.000968054211035818
sg8
F1.0
sg9
F0.02040816326530612
ssg10
(dp1565
g7
F0.015488867376573089
sg8
F16.0
sg9
F0.32653061224489793
ssg12
(dp1566
g7
F0.031945788964181994
sg8
F33.0
sg9
F0.673469387755102
ssg14
(dp1567
g7
F0.015488867376573089
sg8
F16.0
sg9
F0.32653061224489793
sssg18
I0
sg19
I49
sg20
I33
sg21
I1033
ssS'bellacindylee'
p1568
(dp1569
g3
(dp1570
g5
(dp1571
g7
F0.004050222762251924
sg8
F10.0
sg9
F0.060240963855421686
ssg10
(dp1572
g7
F0.01012555690562981
sg8
F25.0
sg9
F0.15060240963855423
ssg12
(dp1573
g7
F0.025111381125961927
sg8
F62.0
sg9
F0.37349397590361444
ssg14
(dp1574
g7
F0.008910490076954233
sg8
F22.0
sg9
F0.13253012048192772
ssg16
(dp1575
g7
F0.002025111381125962
sg8
F5.0
sg9
F0.030120481927710843
sssg18
I0
sg19
I166
sg20
I62
sg21
I2469
ssS'gilologi'
p1576
(dp1577
g3
(dp1578
g5
(dp1579
g7
F0.004020100502512563
sg8
F8.0
sg9
F0.06722689075630252
ssg10
(dp1580
g7
F0.005527638190954774
sg8
F11.0
sg9
F0.09243697478991597
ssg27
(dp1581
g7
F0.0005025125628140704
sg8
F1.0
sg9
F0.008403361344537815
ssg14
(dp1582
g7
F0.005527638190954774
sg8
F11.0
sg9
F0.09243697478991597
ssg16
(dp1583
g7
F0.0010050251256281408
sg8
F2.0
sg9
F0.01680672268907563
ssg12
(dp1584
g7
F0.016582914572864323
sg8
F33.0
sg9
F0.2773109243697479
sssg18
I0
sg19
I119
sg20
I33
sg21
I1990
ssS'PatsonBibou1168'
p1585
(dp1586
g3
(dp1587
g12
(dp1588
g7
F0.0
sg8
F0.0
sg9
F0.0
sssg18
I0
sg19
I9
sg20
I0
sg21
I158
ssS'eric_vanpraag'
p1589
(dp1590
g3
(dp1591
g5
(dp1592
g7
F0.001866368047779022
sg8
F5.0
sg9
F0.03546099290780142
ssg10
(dp1593
g7
F0.014930944382232176
sg8
F40.0
sg9
F0.28368794326241137
ssg27
(dp1594
g7
F0.0007465472191116088
sg8
F2.0
sg9
F0.014184397163120567
ssg14
(dp1595
g7
F0.014184397163120567
sg8
F38.0
sg9
F0.2695035460992908
ssg16
(dp1596
g7
F0.0022396416573348264
sg8
F6.0
sg9
F0.0425531914893617
ssg12
(dp1597
g7
F0.0339678984695782
sg8
F91.0
sg9
F0.6453900709219859
sssg18
I0
sg19
I141
sg20
I91
sg21
I2679
ssS'FightInequalit1'
p1598
(dp1599
g3
(dp1600
g5
(dp1601
g7
F0.0009202453987730061
sg8
F3.0
sg9
F0.01764705882352941
ssg10
(dp1602
g7
F0.002147239263803681
sg8
F7.0
sg9
F0.041176470588235294
ssg12
(dp1603
g7
F0.005214723926380368
sg8
F17.0
sg9
F0.1
ssg14
(dp1604
g7
F0.0006134969325153375
sg8
F2.0
sg9
F0.011764705882352941
ssg16
(dp1605
g7
F0.0015337423312883436
sg8
F5.0
sg9
F0.029411764705882353
sssg18
I0
sg19
I170
sg20
I17
sg21
I3260
ssS'katausten'
p1606
(dp1607
g109
I0
sg110
I190
sg111
I3272
sg112
I48
sg113
(dp1608
g115
(dp1609
g117
F0.004278728606356968
sg118
F14.0
sg119
F0.07368421052631578
ssg120
(dp1610
g117
F0.00519559902200489
sg118
F17.0
sg119
F0.08947368421052632
ssg126
(dp1611
g117
F0.014669926650366748
sg118
F48.0
sg119
F0.25263157894736843
ssg124
(dp1612
g117
F0.004584352078239609
sg118
F15.0
sg119
F0.07894736842105263
ssg432
(dp1613
g117
F0.0006112469437652812
sg118
F2.0
sg119
F0.010526315789473684
ssssS'Sebespejo'
p1614
(dp1615
g3
(dp1616
g10
(dp1617
g7
F0.0025906735751295338
sg8
F1.0
sg9
F0.02857142857142857
ssg12
(dp1618
g7
F0.0051813471502590676
sg8
F2.0
sg9
F0.05714285714285714
ssg14
(dp1619
g7
F0.0025906735751295338
sg8
F1.0
sg9
F0.02857142857142857
sssg18
I0
sg19
I35
sg20
I2
sg21
I386
ssS'JohnTrumanWolfe'
p1620
(dp1621
g3
(dp1622
g10
(dp1623
g7
F0.0008038585209003215
sg8
F2.0
sg9
F0.01
ssg27
(dp1624
g7
F0.00040192926045016077
sg8
F1.0
sg9
F0.005
ssg14
(dp1625
g7
F0.00040192926045016077
sg8
F1.0
sg9
F0.005
ssg16
(dp1626
g7
F0.00040192926045016077
sg8
F1.0
sg9
F0.005
ssg12
(dp1627
g7
F0.0020096463022508037
sg8
F5.0
sg9
F0.025
sssg18
I0
sg19
I200
sg20
I5
sg21
I2488
ssS'WRIClimate'
p1628
(dp1629
g3
(dp1630
g5
(dp1631
g7
F0.002076603599446239
sg8
F9.0
sg9
F0.04522613065326633
ssg10
(dp1632
g7
F0.047069681587448085
sg8
F204.0
sg9
F1.0251256281407035
ssg27
(dp1633
g7
F0.002076603599446239
sg8
F9.0
sg9
F0.04522613065326633
ssg14
(dp1634
g7
F0.04683894785417628
sg8
F203.0
sg9
F1.020100502512563
ssg16
(dp1635
g7
F0.0029995385325334565
sg8
F13.0
sg9
F0.06532663316582915
ssg12
(dp1636
g7
F0.1010613751730503
sg8
F438.0
sg9
F2.201005025125628
sssg18
I0
sg19
I199
sg20
I438
sg21
I4334
ssS'SusieMod88'
p1637
(dp1638
g3
(dp1639
g5
(dp1640
g7
F0.003001412429378531
sg8
F17.0
sg9
F0.10240963855421686
ssg10
(dp1641
g7
F0.00017655367231638418
sg8
F1.0
sg9
F0.006024096385542169
ssg12
(dp1642
g7
F0.0033545197740112993
sg8
F19.0
sg9
F0.1144578313253012
ssg14
(dp1643
g7
F0.00017655367231638418
sg8
F1.0
sg9
F0.006024096385542169
sssg18
I0
sg19
I166
sg20
I19
sg21
I5664
ssS'ChristosEllina1'
p1644
(dp1645
g3
(dp1646
g5
(dp1647
g7
F0.004132231404958678
sg8
F13.0
sg9
F0.06842105263157895
ssg10
(dp1648
g7
F0.003814367450731087
sg8
F12.0
sg9
F0.06315789473684211
ssg27
(dp1649
g7
F0.0003178639542275906
sg8
F1.0
sg9
F0.005263157894736842
ssg14
(dp1650
g7
F0.0009535918626827717
sg8
F3.0
sg9
F0.015789473684210527
ssg16
(dp1651
g7
F0.0025429116338207248
sg8
F8.0
sg9
F0.042105263157894736
ssg12
(dp1652
g7
F0.011760966306420852
sg8
F37.0
sg9
F0.19473684210526315
sssg18
I0
sg19
I190
sg20
I37
sg21
I3146
ssS'barryejames'
p1653
(dp1654
g3
(dp1655
g5
(dp1656
g7
F0.002931769722814499
sg8
F11.0
sg9
F0.055
ssg10
(dp1657
g7
F0.0010660980810234541
sg8
F4.0
sg9
F0.02
ssg27
(dp1658
g7
F0.0007995735607675906
sg8
F3.0
sg9
F0.015
ssg14
(dp1659
g7
F0.0005330490405117271
sg8
F2.0
sg9
F0.01
ssg12
(dp1660
g7
F0.005330490405117271
sg8
F20.0
sg9
F0.1
sssg18
I0
sg19
I200
sg20
I20
sg21
I3752
ssS'GuidoCaldarelli'
p1661
(dp1662
g109
I0
sg110
I123
sg111
I2061
sg112
I54
sg113
(dp1663
g126
(dp1664
g117
F0.026200873362445413
sg118
F54.0
sg119
F0.43902439024390244
ssg115
(dp1665
g117
F0.002911208151382824
sg118
F6.0
sg119
F0.04878048780487805
ssg120
(dp1666
g117
F0.011159631246967491
sg118
F23.0
sg119
F0.18699186991869918
ssg122
(dp1667
g117
F0.00048520135856380397
sg118
F1.0
sg119
F0.008130081300813009
ssg124
(dp1668
g117
F0.006307617661329452
sg118
F13.0
sg119
F0.10569105691056911
ssg432
(dp1669
g117
F0.005337214944201844
sg118
F11.0
sg119
F0.08943089430894309
ssssS'REANworld'
p1670
(dp1671
g3
(dp1672
g5
(dp1673
g7
F0.002583979328165375
sg8
F1.0
sg9
F0.027777777777777776
ssg10
(dp1674
g7
F0.00516795865633075
sg8
F2.0
sg9
F0.05555555555555555
ssg12
(dp1675
g7
F0.012919896640826873
sg8
F5.0
sg9
F0.1388888888888889
ssg16
(dp1676
g7
F0.00516795865633075
sg8
F2.0
sg9
F0.05555555555555555
sssg18
I0
sg19
I36
sg20
I5
sg21
I387
ssS'mariusjoh'
p1677
(dp1678
g3
(dp1679
g5
(dp1680
g7
F0.0081799591002045
sg8
F8.0
sg9
F0.12307692307692308
ssg10
(dp1681
g7
F0.00408997955010225
sg8
F4.0
sg9
F0.06153846153846154
ssg12
(dp1682
g7
F0.015337423312883436
sg8
F15.0
sg9
F0.23076923076923078
ssg14
(dp1683
g7
F0.003067484662576687
sg8
F3.0
sg9
F0.046153846153846156
sssg18
I0
sg19
I65
sg20
I15
sg21
I978
ssS'SvyatoslavHrync'
p1684
(dp1685
g3
(dp1686
g12
(dp1687
g7
F0.0
sg8
F0.0
sg9
F0.0
sssg18
I0
sg19
I21
sg20
I0
sg21
I261
ssS'darden2032'
p1688
(dp1689
g3
(dp1690
g12
(dp1691
g7
F0.0
sg8
F0.0
sg9
F0.0
sssg18
I0
sg19
I187
sg20
I0
sg21
I2584
ssS'strategypod'
p1692
(dp1693
g3
(dp1694
g5
(dp1695
g7
F0.011232876712328766
sg8
F41.0
sg9
F0.21465968586387435
ssg10
(dp1696
g7
F0.005753424657534247
sg8
F21.0
sg9
F0.1099476439790576
ssg27
(dp1697
g7
F0.0019178082191780822
sg8
F7.0
sg9
F0.03664921465968586
ssg14
(dp1698
g7
F0.004657534246575342
sg8
F17.0
sg9
F0.08900523560209424
ssg16
(dp1699
g7
F0.0027397260273972603
sg8
F10.0
sg9
F0.05235602094240838
ssg12
(dp1700
g7
F0.0263013698630137
sg8
F96.0
sg9
F0.5026178010471204
sssg18
I0
sg19
I191
sg20
I96
sg21
I3650
ssS'D_young_69'
p1701
(dp1702
g3
(dp1703
g5
(dp1704
g7
F0.001379310344827586
sg8
F3.0
sg9
F0.022388059701492536
ssg10
(dp1705
g7
F0.005057471264367816
sg8
F11.0
sg9
F0.08208955223880597
ssg27
(dp1706
g7
F0.0004597701149425287
sg8
F1.0
sg9
F0.007462686567164179
ssg14
(dp1707
g7
F0.0009195402298850574
sg8
F2.0
sg9
F0.014925373134328358
ssg16
(dp1708
g7
F0.004137931034482759
sg8
F9.0
sg9
F0.06716417910447761
ssg12
(dp1709
g7
F0.011954022988505748
sg8
F26.0
sg9
F0.19402985074626866
sssg18
I0
sg19
I134
sg20
I26
sg21
I2175
ssS'gerrad12456789'
p1710
(dp1711
g3
(dp1712
g12
(dp1713
g7
F0.0
sg8
F0.0
sg9
F0.0
sssg18
I0
sg19
I3
sg20
I0
sg21
I11
ssS'T1m3Trav313r'
p1714
(dp1715
g3
(dp1716
g5
(dp1717
g7
F0.007903836654042483
sg8
F48.0
sg9
F0.24
ssg10
(dp1718
g7
F0.002799275481640046
sg8
F17.0
sg9
F0.085
ssg12
(dp1719
g7
F0.013996377408200231
sg8
F85.0
sg9
F0.425
ssg14
(dp1720
g7
F0.0016466326362588506
sg8
F10.0
sg9
F0.05
ssg16
(dp1721
g7
F0.0016466326362588506
sg8
F10.0
sg9
F0.05
sssg18
I0
sg19
I200
sg20
I85
sg21
I6073
ssS'MariaBejaCosta1'
p1722
(dp1723
g3
(dp1724
g12
(dp1725
g7
F0.0
sg8
F0.0
sg9
F0.0
sssg18
I0
sg19
I51
sg20
I0
sg21
I541
ssS'AEBIOM'
p1726
(dp1727
g3
(dp1728
g5
(dp1729
g7
F0.002635046113306983
sg8
F10.0
sg9
F0.05555555555555555
ssg10
(dp1730
g7
F0.007378129117259552
sg8
F28.0
sg9
F0.15555555555555556
ssg27
(dp1731
g7
F0.00026350461133069827
sg8
F1.0
sg9
F0.005555555555555556
ssg14
(dp1732
g7
F0.005797101449275362
sg8
F22.0
sg9
F0.12222222222222222
ssg16
(dp1733
g7
F0.003952569169960474
sg8
F15.0
sg9
F0.08333333333333333
ssg12
(dp1734
g7
F0.02002635046113307
sg8
F76.0
sg9
F0.4222222222222222
sssg18
I0
sg19
I180
sg20
I76
sg21
I3795
ssS'Thierry_Kame'
p1735
(dp1736
g3
(dp1737
g5
(dp1738
g7
F0.0013583265417006249
sg8
F5.0
sg9
F0.025906735751295335
ssg10
(dp1739
g7
F0.0008149959250203749
sg8
F3.0
sg9
F0.015544041450777202
ssg27
(dp1740
g7
F0.0005433306166802499
sg8
F2.0
sg9
F0.010362694300518135
ssg14
(dp1741
g7
F0.0005433306166802499
sg8
F2.0
sg9
F0.010362694300518135
ssg16
(dp1742
g7
F0.0005433306166802499
sg8
F2.0
sg9
F0.010362694300518135
ssg12
(dp1743
g7
F0.0038033143167617496
sg8
F14.0
sg9
F0.07253886010362694
sssg18
I0
sg19
I193
sg20
I14
sg21
I3681
ssS'EuroLuckyStars'
p1744
(dp1745
g3
(dp1746
g12
(dp1747
g7
F0.0
sg8
F0.0
sg9
F0.0
sssg18
I0
sg19
I1
sg20
I0
sg21
I23
ssS'FutSciNow'
p1748
(dp1749
g3
(dp1750
g5
(dp1751
g7
F0.005920663114268798
sg8
F20.0
sg9
F0.10582010582010581
ssg10
(dp1752
g7
F0.002960331557134399
sg8
F10.0
sg9
F0.05291005291005291
ssg12
(dp1753
g7
F0.011841326228537596
sg8
F40.0
sg9
F0.21164021164021163
ssg14
(dp1754
g7
F0.0020722320899940793
sg8
F7.0
sg9
F0.037037037037037035
ssg16
(dp1755
g7
F0.0008880994671403197
sg8
F3.0
sg9
F0.015873015873015872
sssg18
I0
sg19
I189
sg20
I40
sg21
I3378
ssS'ferminserrano'
p1756
(dp1757
g3
(dp1758
g5
(dp1759
g7
F0.007741935483870968
sg8
F6.0
sg9
F0.125
ssg10
(dp1760
g7
F0.0012903225806451613
sg8
F1.0
sg9
F0.020833333333333332
ssg12
(dp1761
g7
F0.01032258064516129
sg8
F8.0
sg9
F0.16666666666666666
ssg14
(dp1762
g7
F0.0012903225806451613
sg8
F1.0
sg9
F0.020833333333333332
sssg18
I0
sg19
I48
sg20
I8
sg21
I775
ssS'SolarInMASS'
p1763
(dp1764
g3
(dp1765
g5
(dp1766
g7
F0.002277904328018223
sg8
F9.0
sg9
F0.04639175257731959
ssg10
(dp1767
g7
F0.003543406732472792
sg8
F14.0
sg9
F0.07216494845360824
ssg27
(dp1768
g7
F0.0002531004808909137
sg8
F1.0
sg9
F0.005154639175257732
ssg14
(dp1769
g7
F0.0027841052898000505
sg8
F11.0
sg9
F0.05670103092783505
ssg12
(dp1770
g7
F0.00885851683118198
sg8
F35.0
sg9
F0.18041237113402062
sssg18
I0
sg19
I194
sg20
I35
sg21
I3951
ssS'ZoeGold69'
p1771
(dp1772
g3
(dp1773
g5
(dp1774
g7
F0.0008105917319643339
sg8
F3.0
sg9
F0.015625
ssg10
(dp1775
g7
F0.0005403944879762226
sg8
F2.0
sg9
F0.010416666666666666
ssg12
(dp1776
g7
F0.0016211834639286678
sg8
F6.0
sg9
F0.03125
ssg14
(dp1777
g7
F0.0002701972439881113
sg8
F1.0
sg9
F0.005208333333333333
sssg18
I0
sg19
I192
sg20
I6
sg21
I3701
ssS'maxidana1'
p1778
(dp1779
g3
(dp1780
g10
(dp1781
g7
F0.03896103896103896
sg8
F3.0
sg9
F0.5
ssg12
(dp1782
g7
F0.03896103896103896
sg8
F3.0
sg9
F0.5
sssg18
I0
sg19
I6
sg20
I3
sg21
I77
ssS'joelcomm'
p1783
(dp1784
g3
(dp1785
g5
(dp1786
g7
F0.003317360855141909
sg8
F9.0
sg9
F0.04522613065326633
ssg10
(dp1787
g7
F0.001474382602285293
sg8
F4.0
sg9
F0.020100502512562814
ssg12
(dp1788
g7
F0.006266126059712496
sg8
F17.0
sg9
F0.08542713567839195
ssg16
(dp1789
g7
F0.001474382602285293
sg8
F4.0
sg9
F0.020100502512562814
sssg18
I0
sg19
I199
sg20
I17
sg21
I2713
ssS'creditladder'
p1790
(dp1791
g3
(dp1792
g5
(dp1793
g7
F0.0017031630170316302
sg8
F7.0
sg9
F0.035
ssg10
(dp1794
g7
F0.00024330900243309004
sg8
F1.0
sg9
F0.005
ssg27
(dp1795
g7
F0.00048661800486618007
sg8
F2.0
sg9
F0.01
ssg16
(dp1796
g7
F0.00024330900243309004
sg8
F1.0
sg9
F0.005
ssg12
(dp1797
g7
F0.00267639902676399
sg8
F11.0
sg9
F0.055
sssg18
I0
sg19
I200
sg20
I11
sg21
I4110
ssS'germanacanzi'
p1798
(dp1799
g3
(dp1800
g5
(dp1801
g7
F0.0005412719891745603
sg8
F2.0
sg9
F0.010256410256410256
ssg10
(dp1802
g7
F0.03247631935047361
sg8
F120.0
sg9
F0.6153846153846154
ssg27
(dp1803
g7
F0.0018944519621109607
sg8
F7.0
sg9
F0.035897435897435895
ssg14
(dp1804
g7
F0.031935047361299054
sg8
F118.0
sg9
F0.6051282051282051
ssg16
(dp1805
g7
F0.0016238159675236806
sg8
F6.0
sg9
F0.03076923076923077
ssg12
(dp1806
g7
F0.06847090663058186
sg8
F253.0
sg9
F1.2974358974358975
sssg18
I0
sg19
I195
sg20
I253
sg21
I3695
ssS'ilhanakbas'
p1807
(dp1808
g3
(dp1809
g5
(dp1810
g7
F0.0010309278350515464
sg8
F2.0
sg9
F0.014705882352941176
ssg10
(dp1811
g7
F0.002577319587628866
sg8
F5.0
sg9
F0.03676470588235294
ssg27
(dp1812
g7
F0.0005154639175257732
sg8
F1.0
sg9
F0.007352941176470588
ssg14
(dp1813
g7
F0.0015463917525773195
sg8
F3.0
sg9
F0.022058823529411766
ssg16
(dp1814
g7
F0.0005154639175257732
sg8
F1.0
sg9
F0.007352941176470588
ssg12
(dp1815
g7
F0.006185567010309278
sg8
F12.0
sg9
F0.08823529411764706
sssg18
I0
sg19
I136
sg20
I12
sg21
I1940
ssS'KushyKush'
p1816
(dp1817
g3
(dp1818
g5
(dp1819
g7
F0.003708281829419036
sg8
F12.0
sg9
F0.06030150753768844
ssg10
(dp1820
g7
F0.013906056860321385
sg8
F45.0
sg9
F0.22613065326633167
ssg12
(dp1821
g7
F0.0315203955500618
sg8
F102.0
sg9
F0.5125628140703518
ssg14
(dp1822
g7
F0.013288009888751545
sg8
F43.0
sg9
F0.21608040201005024
ssg16
(dp1823
g7
F0.0006180469715698393
sg8
F2.0
sg9
F0.010050251256281407
sssg18
I0
sg19
I199
sg20
I102
sg21
I3236
ssS'goldthau'
p1824
(dp1825
g3
(dp1826
g5
(dp1827
g7
F0.0014179369018078695
sg8
F4.0
sg9
F0.023121387283236993
ssg10
(dp1828
g7
F0.0021269053527118043
sg8
F6.0
sg9
F0.03468208092485549
ssg12
(dp1829
g7
F0.005671747607231478
sg8
F16.0
sg9
F0.09248554913294797
ssg14
(dp1830
g7
F0.0007089684509039348
sg8
F2.0
sg9
F0.011560693641618497
ssg16
(dp1831
g7
F0.0014179369018078695
sg8
F4.0
sg9
F0.023121387283236993
sssg18
I0
sg19
I173
sg20
I16
sg21
I2821
ssS'BenitoMma'
p1832
(dp1833
g3
(dp1834
g12
(dp1835
g7
F0.0
sg8
F0.0
sg9
F0.0
sssg18
I0
sg19
I14
sg20
I0
sg21
I186
ssS'AngelFe23124123'
p1836
(dp1837
g3
(dp1838
g12
(dp1839
g7
F0.0
sg8
F0.0
sg9
F0.0
sssg18
I0
sg19
I1
sg20
I0
sg21
I4
ssS'dataforpolicy'
p1840
(dp1841
g3
(dp1842
g5
(dp1843
g7
F0.002206287920573635
sg8
F8.0
sg9
F0.04020100502512563
ssg10
(dp1844
g7
F0.000827357970215113
sg8
F3.0
sg9
F0.01507537688442211
ssg12
(dp1845
g7
F0.0035852178709321566
sg8
F13.0
sg9
F0.06532663316582915
ssg16
(dp1846
g7
F0.0005515719801434088
sg8
F2.0
sg9
F0.010050251256281407
sssg18
I0
sg19
I199
sg20
I13
sg21
I3626
ssS'kevinpuisieux'
p1847
(dp1848
g3
(dp1849
g12
(dp1850
g7
F0.0
sg8
F0.0
sg9
F0.0
sssg18
I0
sg19
I1
sg20
I0
sg21
I22
ssS'WarrenWhitlock'
p1851
(dp1852
g3
(dp1853
g5
(dp1854
g7
F0.00796812749003984
sg8
F22.0
sg9
F0.11458333333333333
ssg10
(dp1855
g7
F0.008692502716407098
sg8
F24.0
sg9
F0.125
ssg12
(dp1856
g7
F0.025353132922854037
sg8
F70.0
sg9
F0.3645833333333333
ssg16
(dp1857
g7
F0.008692502716407098
sg8
F24.0
sg9
F0.125
sssg18
I0
sg19
I192
sg20
I70
sg21
I2761
ssS'LetsWorkHappy'
p1858
(dp1859
g3
(dp1860
g5
(dp1861
g7
F0.007173601147776184
sg8
F30.0
sg9
F0.15151515151515152
ssg10
(dp1862
g7
F0.001912960306073649
sg8
F8.0
sg9
F0.04040404040404041
ssg12
(dp1863
g7
F0.011238641798182687
sg8
F47.0
sg9
F0.23737373737373738
ssg14
(dp1864
g7
F0.001912960306073649
sg8
F8.0
sg9
F0.04040404040404041
ssg16
(dp1865
g7
F0.00023912003825920613
sg8
F1.0
sg9
F0.005050505050505051
sssg18
I0
sg19
I198
sg20
I47
sg21
I4182
ssS'impactvesting'
p1866
(dp1867
g3
(dp1868
g5
(dp1869
g7
F0.0040680473372781065
sg8
F11.0
sg9
F0.05612244897959184
ssg10
(dp1870
g7
F0.0029585798816568047
sg8
F8.0
sg9
F0.04081632653061224
ssg27
(dp1871
g7
F0.0025887573964497044
sg8
F7.0
sg9
F0.03571428571428571
ssg14
(dp1872
g7
F0.0022189349112426036
sg8
F6.0
sg9
F0.030612244897959183
ssg16
(dp1873
g7
F0.0022189349112426036
sg8
F6.0
sg9
F0.030612244897959183
ssg12
(dp1874
g7
F0.014053254437869823
sg8
F38.0
sg9
F0.19387755102040816
sssg18
I0
sg19
I196
sg20
I38
sg21
I2704
ssS'TheRealShankar'
p1875
(dp1876
g3
(dp1877
g5
(dp1878
g7
F0.0005063291139240507
sg8
F2.0
sg9
F0.01015228426395939
ssg10
(dp1879
g7
F0.0017721518987341772
sg8
F7.0
sg9
F0.03553299492385787
ssg12
(dp1880
g7
F0.0037974683544303796
sg8
F15.0
sg9
F0.07614213197969544
ssg14
(dp1881
g7
F0.0005063291139240507
sg8
F2.0
sg9
F0.01015228426395939
ssg16
(dp1882
g7
F0.0010126582278481013
sg8
F4.0
sg9
F0.02030456852791878
sssg18
I0
sg19
I197
sg20
I15
sg21
I3950
ssS'Fet2Rin'
p1883
(dp1884
g3
(dp1885
g5
(dp1886
g7
F0.003700540848277825
sg8
F13.0
sg9
F0.0663265306122449
ssg27
(dp1887
g7
F0.000569313976658127
sg8
F2.0
sg9
F0.01020408163265306
ssg12
(dp1888
g7
F0.004269854824935952
sg8
F15.0
sg9
F0.07653061224489796
sssg18
I0
sg19
I196
sg20
I15
sg21
I3513
ssS'MoneyWAmission'
p1889
(dp1890
g3
(dp1891
g5
(dp1892
g7
F0.0020177562550443904
sg8
F5.0
sg9
F0.025252525252525252
ssg10
(dp1893
g7
F0.03833736884584342
sg8
F95.0
sg9
F0.4797979797979798
ssg27
(dp1894
g7
F0.0004035512510088781
sg8
F1.0
sg9
F0.005050505050505051
ssg14
(dp1895
g7
F0.03672316384180791
sg8
F91.0
sg9
F0.4595959595959596
ssg16
(dp1896
g7
F0.0004035512510088781
sg8
F1.0
sg9
F0.005050505050505051
ssg12
(dp1897
g7
F0.07788539144471347
sg8
F193.0
sg9
F0.9747474747474747
sssg18
I0
sg19
I198
sg20
I193
sg21
I2478
ssS'Learn_Comms'
p1898
(dp1899
g3
(dp1900
g5
(dp1901
g7
F0.002514668901927913
sg8
F6.0
sg9
F0.0335195530726257
ssg12
(dp1902
g7
F0.002514668901927913
sg8
F6.0
sg9
F0.0335195530726257
sssg18
I0
sg19
I179
sg20
I6
sg21
I2386
ssS'mientje1000000'
p1903
(dp1904
g3
(dp1905
g12
(dp1906
g7
F0.0
sg8
F0.0
sg9
F0.0
sssg18
I0
sg19
I5
sg20
I0
sg21
I21
ssS'flaskn6'
p1907
(dp1908
g3
(dp1909
g5
(dp1910
g7
F0.00032605151613955004
sg8
F1.0
sg9
F0.005263157894736842
ssg10
(dp1911
g7
F0.0006521030322791001
sg8
F2.0
sg9
F0.010526315789473684
ssg12
(dp1912
g7
F0.0013042060645582002
sg8
F4.0
sg9
F0.021052631578947368
ssg16
(dp1913
g7
F0.00032605151613955004
sg8
F1.0
sg9
F0.005263157894736842
sssg18
I0
sg19
I190
sg20
I4
sg21
I3067
ssS'CountryRisks'
p1914
(dp1915
g3
(dp1916
g10
(dp1917
g7
F0.0003831417624521073
sg8
F1.0
sg9
F0.005154639175257732
ssg12
(dp1918
g7
F0.0007662835249042146
sg8
F2.0
sg9
F0.010309278350515464
ssg14
(dp1919
g7
F0.0003831417624521073
sg8
F1.0
sg9
F0.005154639175257732
sssg18
I0
sg19
I194
sg20
I2
sg21
I2610
ssS'MiaPhlor'
p1920
(dp1921
g3
(dp1922
g12
(dp1923
g7
F0.0
sg8
F0.0
sg9
F0.0
sssg18
I0
sg19
I200
sg20
I0
sg21
I2679
ssS'Transitionway'
p1924
(dp1925
g109
I0
sg110
I183
sg111
I3553
sg112
I267
sg113
(dp1926
g126
(dp1927
g117
F0.07514776245426401
sg118
F267.0
sg119
F1.459016393442623
ssg115
(dp1928
g117
F0.0016887137630171687
sg118
F6.0
sg119
F0.03278688524590164
ssg120
(dp1929
g117
F0.032929918378834785
sg118
F117.0
sg119
F0.639344262295082
ssg122
(dp1930
g117
F0.0050661412890515055
sg118
F18.0
sg119
F0.09836065573770492
ssg124
(dp1931
g117
F0.030396847734309035
sg118
F108.0
sg119
F0.5901639344262295
ssg432
(dp1932
g117
F0.0050661412890515055
sg118
F18.0
sg119
F0.09836065573770492
ssssS'DeboyJames21'
p1933
(dp1934
g3
(dp1935
g5
(dp1936
g7
F0.0008928571428571428
sg8
F2.0
sg9
F0.012269938650306749
ssg10
(dp1937
g7
F0.0013392857142857143
sg8
F3.0
sg9
F0.018404907975460124
ssg12
(dp1938
g7
F0.0035714285714285713
sg8
F8.0
sg9
F0.049079754601226995
ssg14
(dp1939
g7
F0.0008928571428571428
sg8
F2.0
sg9
F0.012269938650306749
ssg16
(dp1940
g7
F0.0004464285714285714
sg8
F1.0
sg9
F0.006134969325153374
sssg18
I0
sg19
I163
sg20
I8
sg21
I2240
ssS'HanKitcher'
p1941
(dp1942
g3
(dp1943
g10
(dp1944
g7
F0.0007782101167315176
sg8
F2.0
sg9
F0.010869565217391304
ssg27
(dp1945
g7
F0.0003891050583657588
sg8
F1.0
sg9
F0.005434782608695652
ssg16
(dp1946
g7
F0.0003891050583657588
sg8
F1.0
sg9
F0.005434782608695652
ssg12
(dp1947
g7
F0.0015564202334630351
sg8
F4.0
sg9
F0.021739130434782608
sssg18
I0
sg19
I184
sg20
I4
sg21
I2570
ssS'CanddyShawn'
p1948
(dp1949
g3
(dp1950
g12
(dp1951
g7
F0.0
sg8
F0.0
sg9
F0.0
sssg18
I0
sg19
I105
sg20
I0
sg21
I1437
ssS'mszll'
p1952
(dp1953
g3
(dp1954
g5
(dp1955
g7
F0.0036686028737389176
sg8
F12.0
sg9
F0.06315789473684211
ssg10
(dp1956
g7
F0.0045857535921736475
sg8
F15.0
sg9
F0.07894736842105263
ssg12
(dp1957
g7
F0.012534393151941303
sg8
F41.0
sg9
F0.21578947368421053
ssg14
(dp1958
g7
F0.0006114338122898196
sg8
F2.0
sg9
F0.010526315789473684
ssg16
(dp1959
g7
F0.0036686028737389176
sg8
F12.0
sg9
F0.06315789473684211
sssg18
I0
sg19
I190
sg20
I41
sg21
I3271
ssS'barcomerni'
p1960
(dp1961
g3
(dp1962
g5
(dp1963
g7
F0.0018331805682859762
sg8
F2.0
sg9
F0.024390243902439025
ssg10
(dp1964
g7
F0.002749770852428964
sg8
F3.0
sg9
F0.036585365853658534
ssg12
(dp1965
g7
F0.007332722273143905
sg8
F8.0
sg9
F0.0975609756097561
ssg14
(dp1966
g7
F0.0009165902841429881
sg8
F1.0
sg9
F0.012195121951219513
ssg16
(dp1967
g7
F0.0018331805682859762
sg8
F2.0
sg9
F0.024390243902439025
sssg18
I0
sg19
I82
sg20
I8
sg21
I1091
ssS'forfinancewatch'
p1968
(dp1969
g3
(dp1970
g5
(dp1971
g7
F0.00311262026032824
sg8
F11.0
sg9
F0.061452513966480445
ssg10
(dp1972
g7
F0.015280135823429542
sg8
F54.0
sg9
F0.3016759776536313
ssg27
(dp1973
g7
F0.013865308432371251
sg8
F49.0
sg9
F0.2737430167597765
ssg14
(dp1974
g7
F0.01245048104131296
sg8
F44.0
sg9
F0.24581005586592178
ssg16
(dp1975
g7
F0.007074136955291454
sg8
F25.0
sg9
F0.13966480446927373
ssg12
(dp1976
g7
F0.05178268251273345
sg8
F183.0
sg9
F1.0223463687150838
sssg18
I0
sg19
I179
sg20
I183
sg21
I3534
ssS'Amanuel40Rui'
p1977
(dp1978
g3
(dp1979
g10
(dp1980
g7
F0.000881057268722467
sg8
F2.0
sg9
F0.011764705882352941
ssg12
(dp1981
g7
F0.0013215859030837004
sg8
F3.0
sg9
F0.01764705882352941
ssg16
(dp1982
g7
F0.0004405286343612335
sg8
F1.0
sg9
F0.0058823529411764705
sssg18
I0
sg19
I170
sg20
I3
sg21
I2270
ssS'poesiaculina'
p1983
(dp1984
g3
(dp1985
g12
(dp1986
g7
F0.0
sg8
F0.0
sg9
F0.0
sssg18
I0
sg19
I29
sg20
I0
sg21
I365
ssS'DistributedNRG'
p1987
(dp1988
g3
(dp1989
g10
(dp1990
g7
F0.005595523581135092
sg8
F14.0
sg9
F0.08536585365853659
ssg12
(dp1991
g7
F0.013988808952837729
sg8
F35.0
sg9
F0.21341463414634146
ssg14
(dp1992
g7
F0.002797761790567546
sg8
F7.0
sg9
F0.042682926829268296
ssg16
(dp1993
g7
F0.005595523581135092
sg8
F14.0
sg9
F0.08536585365853659
sssg18
I0
sg19
I164
sg20
I35
sg21
I2502
ssS'ChrisHudgins5'
p1994
(dp1995
g3
(dp1996
g5
(dp1997
g7
F0.0006686726847208291
sg8
F2.0
sg9
F0.010869565217391304
ssg10
(dp1998
g7
F0.0006686726847208291
sg8
F2.0
sg9
F0.010869565217391304
ssg12
(dp1999
g7
F0.001671681711802073
sg8
F5.0
sg9
F0.02717391304347826
ssg14
(dp2000
g7
F0.00033433634236041456
sg8
F1.0
sg9
F0.005434782608695652
sssg18
I0
sg19
I184
sg20
I5
sg21
I2991
ssS'Adellibya1979'
p2001
(dp2002
g3
(dp2003
g5
(dp2004
g7
F0.0018206645425580337
sg8
F4.0
sg9
F0.03418803418803419
ssg12
(dp2005
g7
F0.0018206645425580337
sg8
F4.0
sg9
F0.03418803418803419
sssg18
I0
sg19
I117
sg20
I4
sg21
I2197
ssS'zoozanne'
p2006
(dp2007
g3
(dp2008
g5
(dp2009
g7
F0.0015657620041753654
sg8
F6.0
sg9
F0.03015075376884422
ssg10
(dp2010
g7
F0.027922755741127347
sg8
F107.0
sg9
F0.5376884422110553
ssg12
(dp2011
g7
F0.05741127348643006
sg8
F220.0
sg9
F1.1055276381909547
ssg14
(dp2012
g7
F0.027922755741127347
sg8
F107.0
sg9
F0.5376884422110553
sssg18
I0
sg19
I199
sg20
I220
sg21
I3832
ssS'CaroleCasuco'
p2013
(dp2014
g3
(dp2015
g5
(dp2016
g7
F0.0005644933672029354
sg8
F2.0
sg9
F0.010309278350515464
ssg10
(dp2017
g7
F0.000846740050804403
sg8
F3.0
sg9
F0.015463917525773196
ssg12
(dp2018
g7
F0.001693480101608806
sg8
F6.0
sg9
F0.030927835051546393
ssg16
(dp2019
g7
F0.0002822466836014677
sg8
F1.0
sg9
F0.005154639175257732
sssg18
I0
sg19
I194
sg20
I6
sg21
I3543
ssS'IMPACT_EV'
p2020
(dp2021
g3
(dp2022
g5
(dp2023
g7
F0.005864197530864198
sg8
F19.0
sg9
F0.1043956043956044
ssg10
(dp2024
g7
F0.019753086419753086
sg8
F64.0
sg9
F0.3516483516483517
ssg12
(dp2025
g7
F0.045987654320987656
sg8
F149.0
sg9
F0.8186813186813187
ssg14
(dp2026
g7
F0.0006172839506172839
sg8
F2.0
sg9
F0.01098901098901099
ssg16
(dp2027
g7
F0.019753086419753086
sg8
F64.0
sg9
F0.3516483516483517
sssg18
I0
sg19
I182
sg20
I149
sg21
I3240
ssS'laurasabatini3'
p2028
(dp2029
g3
(dp2030
g12
(dp2031
g7
F0.0
sg8
F0.0
sg9
F0.0
sssg18
I0
sg19
I43
sg20
I0
sg21
I615
ssS'Money4NDCs'
p2032
(dp2033
g3
(dp2034
g5
(dp2035
g7
F0.003585397653194263
sg8
F11.0
sg9
F0.05612244897959184
ssg10
(dp2036
g7
F0.0697522816166884
sg8
F214.0
sg9
F1.0918367346938775
ssg27
(dp2037
g7
F0.030964797913950456
sg8
F95.0
sg9
F0.4846938775510204
ssg14
(dp2038
g7
F0.06877444589308997
sg8
F211.0
sg9
F1.0765306122448979
ssg16
(dp2039
g7
F0.003259452411994785
sg8
F10.0
sg9
F0.05102040816326531
ssg12
(dp2040
g7
F0.17633637548891787
sg8
F541.0
sg9
F2.760204081632653
sssg18
I0
sg19
I196
sg20
I541
sg21
I3068
ssS'mvly3'
p2041
(dp2042
g3
(dp2043
g12
(dp2044
g7
F0.0
sg8
F0.0
sg9
F0.0
sssg18
I0
sg19
I85
sg20
I0
sg21
I1299
ssS'TipGhosh'
p2045
(dp2046
g3
(dp2047
g5
(dp2048
g7
F0.0016339869281045752
sg8
F4.0
sg9
F0.02030456852791878
ssg27
(dp2049
g7
F0.0008169934640522876
sg8
F2.0
sg9
F0.01015228426395939
ssg12
(dp2050
g7
F0.0024509803921568627
sg8
F6.0
sg9
F0.030456852791878174
sssg18
I0
sg19
I197
sg20
I6
sg21
I2448
ssS'marcos_mancini'
p2051
(dp2052
g3
(dp2053
g5
(dp2054
g7
F0.003961965134706815
sg8
F10.0
sg9
F0.06944444444444445
ssg10
(dp2055
g7
F0.019809825673534072
sg8
F50.0
sg9
F0.3472222222222222
ssg27
(dp2056
g7
F0.0019809825673534074
sg8
F5.0
sg9
F0.034722222222222224
ssg14
(dp2057
g7
F0.017036450079239304
sg8
F43.0
sg9
F0.2986111111111111
ssg16
(dp2058
g7
F0.006339144215530904
sg8
F16.0
sg9
F0.1111111111111111
ssg12
(dp2059
g7
F0.0491283676703645
sg8
F124.0
sg9
F0.8611111111111112
sssg18
I0
sg19
I144
sg20
I124
sg21
I2524
ssS'anxosan'
p2060
(dp2061
g3
(dp2062
g5
(dp2063
g7
F0.001539645881447267
sg8
F2.0
sg9
F0.031746031746031744
ssg10
(dp2064
g7
F0.011547344110854504
sg8
F15.0
sg9
F0.23809523809523808
ssg27
(dp2065
g7
F0.0023094688221709007
sg8
F3.0
sg9
F0.047619047619047616
ssg14
(dp2066
g7
F0.010007698229407237
sg8
F13.0
sg9
F0.20634920634920634
ssg16
(dp2067
g7
F0.0023094688221709007
sg8
F3.0
sg9
F0.047619047619047616
ssg12
(dp2068
g7
F0.02771362586605081
sg8
F36.0
sg9
F0.5714285714285714
sssg18
I0
sg19
I63
sg20
I36
sg21
I1299
ssS'borja_moyagomez'
p2069
(dp2070
g3
(dp2071
g5
(dp2072
g7
F0.004329004329004329
sg8
F1.0
sg9
F0.07692307692307693
ssg12
(dp2073
g7
F0.004329004329004329
sg8
F1.0
sg9
F0.07692307692307693
sssg18
I0
sg19
I13
sg20
I1
sg21
I231
ssS'mnapoletano1'
p2074
(dp2075
g3
(dp2076
g5
(dp2077
g7
F0.003727549983056591
sg8
F11.0
sg9
F0.06077348066298342
ssg10
(dp2078
g7
F0.017960013554727212
sg8
F53.0
sg9
F0.292817679558011
ssg27
(dp2079
g7
F0.006777363605557438
sg8
F20.0
sg9
F0.11049723756906077
ssg14
(dp2080
g7
F0.016604540833615723
sg8
F49.0
sg9
F0.27071823204419887
ssg16
(dp2081
g7
F0.004744154523890207
sg8
F14.0
sg9
F0.07734806629834254
ssg12
(dp2082
g7
F0.04981362250084717
sg8
F147.0
sg9
F0.8121546961325967
sssg18
I0
sg19
I181
sg20
I147
sg21
I2951
ssS'mqdicer'
p2083
(dp2084
g3
(dp2085
g5
(dp2086
g7
F0.0007442322004465393
sg8
F3.0
sg9
F0.015625
ssg10
(dp2087
g7
F0.0014884644008930786
sg8
F6.0
sg9
F0.03125
ssg12
(dp2088
g7
F0.0034730836020838503
sg8
F14.0
sg9
F0.07291666666666667
ssg14
(dp2089
g7
F0.00024807740014884643
sg8
F1.0
sg9
F0.005208333333333333
ssg16
(dp2090
g7
F0.0009923096005953857
sg8
F4.0
sg9
F0.020833333333333332
sssg18
I0
sg19
I192
sg20
I14
sg21
I4031
ssS'85Fifteen'
p2091
(dp2092
g3
(dp2093
g5
(dp2094
g7
F0.0032916392363396972
sg8
F10.0
sg9
F0.05181347150259067
ssg10
(dp2095
g7
F0.013166556945358789
sg8
F40.0
sg9
F0.20725388601036268
ssg27
(dp2096
g7
F0.0003291639236339697
sg8
F1.0
sg9
F0.0051813471502590676
ssg14
(dp2097
g7
F0.01119157340355497
sg8
F34.0
sg9
F0.17616580310880828
ssg16
(dp2098
g7
F0.009216589861751152
sg8
F28.0
sg9
F0.14507772020725387
ssg12
(dp2099
g7
F0.03719552337063858
sg8
F113.0
sg9
F0.5854922279792746
sssg18
I0
sg19
I193
sg20
I113
sg21
I3038
ssS'iormazabali'
p2100
(dp2101
g3
(dp2102
g5
(dp2103
g7
F0.00392156862745098
sg8
F1.0
sg9
F0.0625
ssg12
(dp2104
g7
F0.00392156862745098
sg8
F1.0
sg9
F0.0625
sssg18
I0
sg19
I16
sg20
I1
sg21
I255
ssS'greencareersorg'
p2105
(dp2106
g3
(dp2107
g5
(dp2108
g7
F0.0025076623014767345
sg8
F9.0
sg9
F0.04568527918781726
ssg10
(dp2109
g7
F0.008916132627472834
sg8
F32.0
sg9
F0.16243654822335024
ssg12
(dp2110
g7
F0.020897185845639453
sg8
F75.0
sg9
F0.38071065989847713
ssg14
(dp2111
g7
F0.007244357759821678
sg8
F26.0
sg9
F0.1319796954314721
ssg16
(dp2112
g7
F0.0022290331568682086
sg8
F8.0
sg9
F0.04060913705583756
sssg18
I0
sg19
I197
sg20
I75
sg21
I3589
ssS'rubene822'
p2113
(dp2114
g3
(dp2115
g12
(dp2116
g7
F0.0
sg8
F0.0
sg9
F0.0
sssg18
I0
sg19
I8
sg20
I0
sg21
I132
ssS'tachristopoulos'
p2117
(dp2118
g3
(dp2119
g12
(dp2120
g7
F0.0
sg8
F0.0
sg9
F0.0
sssg18
I0
sg19
I4
sg20
I0
sg21
I44
ssS'agabardo'
p2121
(dp2122
g3
(dp2123
g5
(dp2124
g7
F0.0026362038664323375
sg8
F3.0
sg9
F0.03409090909090909
ssg10
(dp2125
g7
F0.0008787346221441124
sg8
F1.0
sg9
F0.011363636363636364
ssg12
(dp2126
g7
F0.004393673110720563
sg8
F5.0
sg9
F0.056818181818181816
ssg14
(dp2127
g7
F0.0008787346221441124
sg8
F1.0
sg9
F0.011363636363636364
sssg18
I0
sg19
I88
sg20
I5
sg21
I1138
ssS'simply_jaehyuk'
p2128
(dp2129
g3
(dp2130
g5
(dp2131
g7
F0.00030111412225233364
sg8
F1.0
sg9
F0.005154639175257732
ssg10
(dp2132
g7
F0.002408912978018669
sg8
F8.0
sg9
F0.041237113402061855
ssg12
(dp2133
g7
F0.005420054200542005
sg8
F18.0
sg9
F0.09278350515463918
ssg14
(dp2134
g7
F0.00030111412225233364
sg8
F1.0
sg9
F0.005154639175257732
ssg16
(dp2135
g7
F0.002408912978018669
sg8
F8.0
sg9
F0.041237113402061855
sssg18
I0
sg19
I194
sg20
I18
sg21
I3321
ssS'PheasantEnergy'
p2136
(dp2137
g3
(dp2138
g5
(dp2139
g7
F0.0011090573012939
sg8
F3.0
sg9
F0.015873015873015872
ssg10
(dp2140
g7
F0.0007393715341959334
sg8
F2.0
sg9
F0.010582010582010581
ssg12
(dp2141
g7
F0.002587800369685767
sg8
F7.0
sg9
F0.037037037037037035
ssg14
(dp2142
g7
F0.0007393715341959334
sg8
F2.0
sg9
F0.010582010582010581
sssg18
I0
sg19
I189
sg20
I7
sg21
I2705
ssS'LyndaMansson'
p2143
(dp2144
g3
(dp2145
g5
(dp2146
g7
F0.004704301075268817
sg8
F14.0
sg9
F0.08917197452229299
ssg10
(dp2147
g7
F0.01478494623655914
sg8
F44.0
sg9
F0.2802547770700637
ssg27
(dp2148
g7
F0.0023521505376344087
sg8
F7.0
sg9
F0.044585987261146494
ssg14
(dp2149
g7
F0.012768817204301076
sg8
F38.0
sg9
F0.24203821656050956
ssg16
(dp2150
g7
F0.003696236559139785
sg8
F11.0
sg9
F0.07006369426751592
ssg12
(dp2151
g7
F0.038306451612903226
sg8
F114.0
sg9
F0.7261146496815286
sssg18
I0
sg19
I157
sg20
I114
sg21
I2976
ssS'MPA37855265'
p2152
(dp2153
g3
(dp2154
g12
(dp2155
g7
F0.0
sg8
F0.0
sg9
F0.0
sssg18
I0
sg19
I6
sg20
I0
sg21
I35
ssS'RubyBretislav'
p2156
(dp2157
g3
(dp2158
g5
(dp2159
g7
F0.00022336385972749609
sg8
F1.0
sg9
F0.0053475935828877
ssg10
(dp2160
g7
F0.00044672771945499217
sg8
F2.0
sg9
F0.0106951871657754
ssg12
(dp2161
g7
F0.0011168192986374804
sg8
F5.0
sg9
F0.026737967914438502
ssg14
(dp2162
g7
F0.00022336385972749609
sg8
F1.0
sg9
F0.0053475935828877
ssg16
(dp2163
g7
F0.00022336385972749609
sg8
F1.0
sg9
F0.0053475935828877
sssg18
I0
sg19
I187
sg20
I5
sg21
I4477
ssS'crie_ufrj'
p2164
(dp2165
g3
(dp2166
g5
(dp2167
g7
F0.00966183574879227
sg8
F4.0
sg9
F0.19047619047619047
ssg10
(dp2168
g7
F0.004830917874396135
sg8
F2.0
sg9
F0.09523809523809523
ssg12
(dp2169
g7
F0.01932367149758454
sg8
F8.0
sg9
F0.38095238095238093
ssg14
(dp2170
g7
F0.0024154589371980675
sg8
F1.0
sg9
F0.047619047619047616
ssg16
(dp2171
g7
F0.0024154589371980675
sg8
F1.0
sg9
F0.047619047619047616
sssg18
I0
sg19
I21
sg20
I8
sg21
I414
ssS'jnode'
p2172
(dp2173
g3
(dp2174
g5
(dp2175
g7
F0.004699563611950319
sg8
F14.0
sg9
F0.07368421052631578
ssg10
(dp2176
g7
F0.004699563611950319
sg8
F14.0
sg9
F0.07368421052631578
ssg27
(dp2177
g7
F0.000671366230278617
sg8
F2.0
sg9
F0.010526315789473684
ssg14
(dp2178
g7
F0.003356831151393085
sg8
F10.0
sg9
F0.05263157894736842
ssg16
(dp2179
g7
F0.0030211480362537764
sg8
F9.0
sg9
F0.04736842105263158
ssg12
(dp2180
g7
F0.016448472641826115
sg8
F49.0
sg9
F0.2578947368421053
sssg18
I0
sg19
I190
sg20
I49
sg21
I2979
ssS'ivan8848'
p2181
(dp2182
g3
(dp2183
g5
(dp2184
g7
F0.0026189436927106066
sg8
F6.0
sg9
F0.046511627906976744
ssg10
(dp2185
g7
F0.0013094718463553033
sg8
F3.0
sg9
F0.023255813953488372
ssg12
(dp2186
g7
F0.004801396769969445
sg8
F11.0
sg9
F0.08527131782945736
ssg14
(dp2187
g7
F0.00043649061545176777
sg8
F1.0
sg9
F0.007751937984496124
ssg16
(dp2188
g7
F0.00043649061545176777
sg8
F1.0
sg9
F0.007751937984496124
sssg18
I0
sg19
I129
sg20
I11
sg21
I2291
ssS'adilson_motter'
p2189
(dp2190
g3
(dp2191
g5
(dp2192
g7
F0.002077562326869806
sg8
F3.0
sg9
F0.046875
ssg10
(dp2193
g7
F0.0006925207756232687
sg8
F1.0
sg9
F0.015625
ssg12
(dp2194
g7
F0.002770083102493075
sg8
F4.0
sg9
F0.0625
sssg18
I0
sg19
I64
sg20
I4
sg21
I1444
ssS'Lori_McNeill'
p2195
(dp2196
g3
(dp2197
g5
(dp2198
g7
F0.002822466836014677
sg8
F10.0
sg9
F0.05025125628140704
ssg10
(dp2199
g7
F0.003386960203217612
sg8
F12.0
sg9
F0.06030150753768844
ssg12
(dp2200
g7
F0.008749647191645497
sg8
F31.0
sg9
F0.15577889447236182
ssg14
(dp2201
g7
F0.0002822466836014677
sg8
F1.0
sg9
F0.005025125628140704
ssg16
(dp2202
g7
F0.0022579734688117415
sg8
F8.0
sg9
F0.04020100502512563
sssg18
I0
sg19
I199
sg20
I31
sg21
I3543
ssS'mercadomagico'
p2203
(dp2204
g3
(dp2205
g5
(dp2206
g7
F0.001607717041800643
sg8
F6.0
sg9
F0.031746031746031744
ssg12
(dp2207
g7
F0.001607717041800643
sg8
F6.0
sg9
F0.031746031746031744
sssg18
I0
sg19
I189
sg20
I6
sg21
I3732
ssS'DarkMatter_Labs'
p2208
(dp2209
g3
(dp2210
g5
(dp2211
g7
F0.014053254437869823
sg8
F38.0
sg9
F0.20430107526881722
ssg10
(dp2212
g7
F0.007766272189349112
sg8
F21.0
sg9
F0.11290322580645161
ssg27
(dp2213
g7
F0.0003698224852071006
sg8
F1.0
sg9
F0.005376344086021506
ssg14
(dp2214
g7
F0.0003698224852071006
sg8
F1.0
sg9
F0.005376344086021506
ssg16
(dp2215
g7
F0.0073964497041420114
sg8
F20.0
sg9
F0.10752688172043011
ssg12
(dp2216
g7
F0.029955621301775148
sg8
F81.0
sg9
F0.43548387096774194
sssg18
I0
sg19
I186
sg20
I81
sg21
I2704
ssS'GECoalition'
p2217
(dp2218
g3
(dp2219
g5
(dp2220
g7
F0.0021291696238466998
sg8
F9.0
sg9
F0.045454545454545456
ssg10
(dp2221
g7
F0.014194464158977998
sg8
F60.0
sg9
F0.30303030303030304
ssg27
(dp2222
g7
F0.0021291696238466998
sg8
F9.0
sg9
F0.045454545454545456
ssg14
(dp2223
g7
F0.0134847409510291
sg8
F57.0
sg9
F0.2878787878787879
ssg16
(dp2224
g7
F0.0021291696238466998
sg8
F9.0
sg9
F0.045454545454545456
ssg12
(dp2225
g7
F0.034066713981547196
sg8
F144.0
sg9
F0.7272727272727273
sssg18
I0
sg19
I198
sg20
I144
sg21
I4227
ssS'chrizau'
p2226
(dp2227
g3
(dp2228
g5
(dp2229
g7
F0.0016638935108153079
sg8
F1.0
sg9
F0.024390243902439025
ssg10
(dp2230
g7
F0.004991680532445923
sg8
F3.0
sg9
F0.07317073170731707
ssg12
(dp2231
g7
F0.011647254575707155
sg8
F7.0
sg9
F0.17073170731707318
ssg14
(dp2232
g7
F0.004991680532445923
sg8
F3.0
sg9
F0.07317073170731707
sssg18
I0
sg19
I41
sg20
I7
sg21
I601
ssS'JFernandoGRE'
p2233
(dp2234
g3
(dp2235
g5
(dp2236
g7
F0.003587443946188341
sg8
F8.0
sg9
F0.06060606060606061
ssg10
(dp2237
g7
F0.0017937219730941704
sg8
F4.0
sg9
F0.030303030303030304
ssg27
(dp2238
g7
F0.0004484304932735426
sg8
F1.0
sg9
F0.007575757575757576
ssg14
(dp2239
g7
F0.0008968609865470852
sg8
F2.0
sg9
F0.015151515151515152
ssg16
(dp2240
g7
F0.0004484304932735426
sg8
F1.0
sg9
F0.007575757575757576
ssg12
(dp2241
g7
F0.007174887892376682
sg8
F16.0
sg9
F0.12121212121212122
sssg18
I0
sg19
I132
sg20
I16
sg21
I2230
ssS'MazzucatoM'
p2242
(dp2243
g3
(dp2244
g5
(dp2245
g7
F0.00720384204909285
sg8
F27.0
sg9
F0.14136125654450263
ssg10
(dp2246
g7
F0.0016008537886872999
sg8
F6.0
sg9
F0.031413612565445025
ssg27
(dp2247
g7
F0.0005336179295624333
sg8
F2.0
sg9
F0.010471204188481676
ssg14
(dp2248
g7
F0.0008004268943436499
sg8
F3.0
sg9
F0.015706806282722512
ssg16
(dp2249
g7
F0.0010672358591248667
sg8
F4.0
sg9
F0.020942408376963352
ssg12
(dp2250
g7
F0.011205976520811099
sg8
F42.0
sg9
F0.2198952879581152
sssg18
I0
sg19
I191
sg20
I42
sg21
I3748
ssS'BlueTribeCo'
p2251
(dp2252
g3
(dp2253
g5
(dp2254
g7
F0.00984102952308857
sg8
F26.0
sg9
F0.1306532663316583
ssg10
(dp2255
g7
F0.0582891748675246
sg8
F154.0
sg9
F0.7738693467336684
ssg27
(dp2256
g7
F0.0011355034065102195
sg8
F3.0
sg9
F0.01507537688442211
ssg14
(dp2257
g7
F0.04239212717638153
sg8
F112.0
sg9
F0.5628140703517588
ssg16
(dp2258
g7
F0.031037093111279335
sg8
F82.0
sg9
F0.4120603015075377
ssg12
(dp2259
g7
F0.14269492808478426
sg8
F377.0
sg9
F1.8944723618090453
sssg18
I0
sg19
I199
sg20
I377
sg21
I2642
ssS'dariomarmo_lama'
p2260
(dp2261
g109
I0
sg110
I99
sg111
I1771
sg112
I20
sg113
(dp2262
g115
(dp2263
g117
F0.009599096555618294
sg118
F17.0
sg119
F0.1717171717171717
ssg120
(dp2264
g117
F0.000564652738565782
sg118
F1.0
sg119
F0.010101010101010102
ssg126
(dp2265
g117
F0.01129305477131564
sg118
F20.0
sg119
F0.20202020202020202
ssg124
(dp2266
g117
F0.000564652738565782
sg118
F1.0
sg119
F0.010101010101010102
ssg432
(dp2267
g117
F0.000564652738565782
sg118
F1.0
sg119
F0.010101010101010102
ssssS'Xilbshi'
p2268
(dp2269
g3
(dp2270
g12
(dp2271
g7
F0.0
sg8
F0.0
sg9
F0.0
sssg18
I0
sg19
I108
sg20
I0
sg21
I1881
ssS'EarthWatt'
p2272
(dp2273
g3
(dp2274
g5
(dp2275
g7
F0.001990049751243781
sg8
F6.0
sg9
F0.030456852791878174
ssg10
(dp2276
g7
F0.004311774461028192
sg8
F13.0
sg9
F0.06598984771573604
ssg27
(dp2277
g7
F0.0006633499170812604
sg8
F2.0
sg9
F0.01015228426395939
ssg14
(dp2278
g7
F0.003648424543946932
sg8
F11.0
sg9
F0.05583756345177665
ssg16
(dp2279
g7
F0.0009950248756218905
sg8
F3.0
sg9
F0.015228426395939087
ssg12
(dp2280
g7
F0.011608623548922056
sg8
F35.0
sg9
F0.17766497461928935
sssg18
I0
sg19
I197
sg20
I35
sg21
I3015
ssS'Pierre_Monnin'
p2281
(dp2282
g3
(dp2283
g5
(dp2284
g7
F0.0023141452126120912
sg8
F8.0
sg9
F0.0427807486631016
ssg10
(dp2285
g7
F0.029216083309227654
sg8
F101.0
sg9
F0.5401069518716578
ssg27
(dp2286
g7
F0.003181949667341626
sg8
F11.0
sg9
F0.058823529411764705
ssg14
(dp2287
g7
F0.028926815157651144
sg8
F100.0
sg9
F0.5347593582887701
ssg16
(dp2288
g7
F0.0028926815157651145
sg8
F10.0
sg9
F0.053475935828877004
ssg12
(dp2289
g7
F0.06653167486259763
sg8
F230.0
sg9
F1.2299465240641712
sssg18
I0
sg19
I187
sg20
I230
sg21
I3457
ssS'joseph_sattler'
p2290
(dp2291
g3
(dp2292
g5
(dp2293
g7
F0.001977848101265823
sg8
F5.0
sg9
F0.034482758620689655
ssg10
(dp2294
g7
F0.0023734177215189874
sg8
F6.0
sg9
F0.041379310344827586
ssg12
(dp2295
g7
F0.007120253164556962
sg8
F18.0
sg9
F0.12413793103448276
ssg14
(dp2296
g7
F0.001977848101265823
sg8
F5.0
sg9
F0.034482758620689655
ssg16
(dp2297
g7
F0.0007911392405063291
sg8
F2.0
sg9
F0.013793103448275862
sssg18
I0
sg19
I145
sg20
I18
sg21
I2528
ssS'Communication2Y'
p2298
(dp2299
g3
(dp2300
g5
(dp2301
g7
F0.004412354592860008
sg8
F11.0
sg9
F0.06077348066298342
ssg12
(dp2302
g7
F0.004412354592860008
sg8
F11.0
sg9
F0.06077348066298342
sssg18
I0
sg19
I181
sg20
I11
sg21
I2493
ssS'solarcollab'
p2303
(dp2304
g3
(dp2305
g5
(dp2306
g7
F0.0014524328249818446
sg8
F4.0
sg9
F0.020512820512820513
ssg10
(dp2307
g7
F0.005809731299927378
sg8
F16.0
sg9
F0.08205128205128205
ssg12
(dp2308
g7
F0.012708787218591141
sg8
F35.0
sg9
F0.1794871794871795
ssg14
(dp2309
g7
F0.005083514887436456
sg8
F14.0
sg9
F0.07179487179487179
ssg16
(dp2310
g7
F0.00036310820624546115
sg8
F1.0
sg9
F0.005128205128205128
sssg18
I0
sg19
I195
sg20
I35
sg21
I2754
ssS'ideas4FSB'
p2311
(dp2312
g3
(dp2313
g5
(dp2314
g7
F0.0450515216870357
sg8
F188.0
sg9
F0.94
ssg12
(dp2315
g7
F0.0450515216870357
sg8
F188.0
sg9
F0.94
sssg18
I0
sg19
I200
sg20
I188
sg21
I4173
ssS'imsumitchouhan'
p2316
(dp2317
g109
I0
sg110
I184
sg111
I3119
sg112
I47
sg113
(dp2318
g126
(dp2319
g117
F0.015068932350112215
sg118
F47.0
sg119
F0.2554347826086957
ssg115
(dp2320
g117
F0.0076947739660147485
sg118
F24.0
sg119
F0.13043478260869565
ssg120
(dp2321
g117
F0.0019236934915036871
sg118
F6.0
sg119
F0.03260869565217391
ssg122
(dp2322
g117
F0.0025649246553382495
sg118
F8.0
sg119
F0.043478260869565216
ssg124
(dp2323
g117
F0.0012824623276691247
sg118
F4.0
sg119
F0.021739130434782608
ssg432
(dp2324
g117
F0.0016030779095864058
sg118
F5.0
sg119
F0.02717391304347826
ssssS'eurohumph'
p2325
(dp2326
g3
(dp2327
g5
(dp2328
g7
F0.002852253280091272
sg8
F10.0
sg9
F0.05291005291005291
ssg10
(dp2329
g7
F0.0011409013120365088
sg8
F4.0
sg9
F0.021164021164021163
ssg12
(dp2330
g7
F0.005419281232173417
sg8
F19.0
sg9
F0.10052910052910052
ssg14
(dp2331
g7
F0.0008556759840273817
sg8
F3.0
sg9
F0.015873015873015872
ssg16
(dp2332
g7
F0.0005704506560182544
sg8
F2.0
sg9
F0.010582010582010581
sssg18
I0
sg19
I189
sg20
I19
sg21
I3506
ssS'IET_online'
p2333
(dp2334
g3
(dp2335
g5
(dp2336
g7
F0.004641448131817127
sg8
F20.0
sg9
F0.1
ssg10
(dp2337
g7
F0.0164771408679508
sg8
F71.0
sg9
F0.355
ssg12
(dp2338
g7
F0.03782780227430958
sg8
F163.0
sg9
F0.815
ssg14
(dp2339
g7
F0.016245068461359945
sg8
F70.0
sg9
F0.35
ssg16
(dp2340
g7
F0.0004641448131817127
sg8
F2.0
sg9
F0.01
sssg18
I0
sg19
I200
sg20
I163
sg21
I4309
ssS'solarfornia'
p2341
(dp2342
g3
(dp2343
g5
(dp2344
g7
F0.005235602094240838
sg8
F1.0
sg9
F0.07142857142857142
ssg10
(dp2345
g7
F0.005235602094240838
sg8
F1.0
sg9
F0.07142857142857142
ssg12
(dp2346
g7
F0.015706806282722512
sg8
F3.0
sg9
F0.21428571428571427
ssg14
(dp2347
g7
F0.005235602094240838
sg8
F1.0
sg9
F0.07142857142857142
sssg18
I0
sg19
I14
sg20
I3
sg21
I191
ssS'plusvaluetweets'
p2348
(dp2349
g109
I0
sg110
I170
sg111
I3247
sg112
I129
sg113
(dp2350
g126
(dp2351
g117
F0.039728980597474595
sg118
F129.0
sg119
F0.7588235294117647
ssg115
(dp2352
g117
F0.010163227594702803
sg118
F33.0
sg119
F0.19411764705882353
ssg120
(dp2353
g117
F0.013858946720049276
sg118
F45.0
sg119
F0.2647058823529412
ssg122
(dp2354
g117
F0.0012319063751154912
sg118
F4.0
sg119
F0.023529411764705882
ssg124
(dp2355
g117
F0.0009239297813366184
sg118
F3.0
sg119
F0.01764705882352941
ssg432
(dp2356
g117
F0.013550970126270403
sg118
F44.0
sg119
F0.25882352941176473
ssssS'ph_desfosses'
p2357
(dp2358
g3
(dp2359
g5
(dp2360
g7
F0.0026695141484249867
sg8
F10.0
sg9
F0.058823529411764705
ssg10
(dp2361
g7
F0.00800854244527496
sg8
F30.0
sg9
F0.17647058823529413
ssg27
(dp2362
g7
F0.0005339028296849973
sg8
F2.0
sg9
F0.011764705882352941
ssg14
(dp2363
g7
F0.007207688200747464
sg8
F27.0
sg9
F0.1588235294117647
ssg16
(dp2364
g7
F0.001601708489054992
sg8
F6.0
sg9
F0.03529411764705882
ssg12
(dp2365
g7
F0.0200213561131874
sg8
F75.0
sg9
F0.4411764705882353
sssg18
I0
sg19
I170
sg20
I75
sg21
I3746
ssS'NickBeglinger'
p2366
(dp2367
g109
I0
sg110
I169
sg111
I3617
sg112
I94
sg113
(dp2368
g126
(dp2369
g117
F0.02598838816698922
sg118
F94.0
sg119
F0.5562130177514792
ssg115
(dp2370
g117
F0.004700027647221454
sg118
F17.0
sg119
F0.10059171597633136
ssg120
(dp2371
g117
F0.009676527508985348
sg118
F35.0
sg119
F0.20710059171597633
ssg122
(dp2372
g117
F0.0002764722145424385
sg118
F1.0
sg119
F0.005917159763313609
ssg124
(dp2373
g117
F0.00912358307990047
sg118
F33.0
sg119
F0.1952662721893491
ssg432
(dp2374
g117
F0.002211777716339508
sg118
F8.0
sg119
F0.047337278106508875
ssssS'TayZonday'
p2375
(dp2376
g3
(dp2377
g5
(dp2378
g7
F0.002016671148158107
sg8
F15.0
sg9
F0.07614213197969544
ssg10
(dp2379
g7
F0.0008066684592632429
sg8
F6.0
sg9
F0.030456852791878174
ssg12
(dp2380
g7
F0.003361118580263512
sg8
F25.0
sg9
F0.12690355329949238
ssg14
(dp2381
g7
F0.00013444474321054048
sg8
F1.0
sg9
F0.005076142131979695
ssg16
(dp2382
g7
F0.00040333422963162143
sg8
F3.0
sg9
F0.015228426395939087
sssg18
I0
sg19
I197
sg20
I25
sg21
I7438
ssS'futsofwelfare'
p2383
(dp2384
g3
(dp2385
g5
(dp2386
g7
F0.004511278195488722
sg8
F15.0
sg9
F0.07853403141361257
ssg10
(dp2387
g7
F0.002406015037593985
sg8
F8.0
sg9
F0.041884816753926704
ssg12
(dp2388
g7
F0.009323308270676692
sg8
F31.0
sg9
F0.16230366492146597
ssg14
(dp2389
g7
F0.0009022556390977444
sg8
F3.0
sg9
F0.015706806282722512
ssg16
(dp2390
g7
F0.0015037593984962407
sg8
F5.0
sg9
F0.02617801047120419
sssg18
I0
sg19
I191
sg20
I31
sg21
I3325
ssS'ComplexSeastead'
p2391
(dp2392
g3
(dp2393
g5
(dp2394
g7
F0.003663003663003663
sg8
F10.0
sg9
F0.058823529411764705
ssg10
(dp2395
g7
F0.00805860805860806
sg8
F22.0
sg9
F0.12941176470588237
ssg12
(dp2396
g7
F0.021245421245421246
sg8
F58.0
sg9
F0.3411764705882353
ssg14
(dp2397
g7
F0.007692307692307693
sg8
F21.0
sg9
F0.12352941176470589
ssg16
(dp2398
g7
F0.0018315018315018315
sg8
F5.0
sg9
F0.029411764705882353
sssg18
I0
sg19
I170
sg20
I58
sg21
I2730
ssS'carinacarinas'
p2399
(dp2400
g3
(dp2401
g5
(dp2402
g7
F0.002277163305139883
sg8
F7.0
sg9
F0.036458333333333336
ssg10
(dp2403
g7
F0.003903708523096942
sg8
F12.0
sg9
F0.0625
ssg12
(dp2404
g7
F0.00878334417696812
sg8
F27.0
sg9
F0.140625
ssg14
(dp2405
g7
F0.0006506180871828237
sg8
F2.0
sg9
F0.010416666666666666
ssg16
(dp2406
g7
F0.001951854261548471
sg8
F6.0
sg9
F0.03125
sssg18
I0
sg19
I192
sg20
I27
sg21
I3074
ssS'MichellLiberty'
p2407
(dp2408
g3
(dp2409
g5
(dp2410
g7
F0.0007183908045977011
sg8
F2.0
sg9
F0.011764705882352941
ssg10
(dp2411
g7
F0.0014367816091954023
sg8
F4.0
sg9
F0.023529411764705882
ssg12
(dp2412
g7
F0.003232758620689655
sg8
F9.0
sg9
F0.052941176470588235
ssg14
(dp2413
g7
F0.0010775862068965517
sg8
F3.0
sg9
F0.01764705882352941
sssg18
I0
sg19
I170
sg20
I9
sg21
I2784
ssS'FoundationRMF'
p2414
(dp2415
g109
I0
sg110
I197
sg111
I7551
sg112
I53
sg113
(dp2416
g115
(dp2417
g117
F0.003575685339690107
sg118
F27.0
sg119
F0.13705583756345177
ssg120
(dp2418
g117
F0.0018540590650245
sg118
F14.0
sg119
F0.07106598984771574
ssg126
(dp2419
g117
F0.007018937889021322
sg118
F53.0
sg119
F0.26903553299492383
ssg124
(dp2420
g117
F0.0003972983710766786
sg118
F3.0
sg119
F0.015228426395939087
ssg432
(dp2421
g117
F0.0011918951132300357
sg118
F9.0
sg119
F0.04568527918781726
ssssS'BrainConceptual'
p2422
(dp2423
g3
(dp2424
g5
(dp2425
g7
F0.00141643059490085
sg8
F1.0
sg9
F0.023255813953488372
ssg10
(dp2426
g7
F0.0028328611898017
sg8
F2.0
sg9
F0.046511627906976744
ssg12
(dp2427
g7
F0.007082152974504249
sg8
F5.0
sg9
F0.11627906976744186
ssg16
(dp2428
g7
F0.0028328611898017
sg8
F2.0
sg9
F0.046511627906976744
sssg18
I0
sg19
I43
sg20
I5
sg21
I706
ssS'dgpapanikas'
p2429
(dp2430
g3
(dp2431
g10
(dp2432
g7
F0.008
sg8
F2.0
sg9
F0.1111111111111111
ssg12
(dp2433
g7
F0.016
sg8
F4.0
sg9
F0.2222222222222222
ssg14
(dp2434
g7
F0.008
sg8
F2.0
sg9
F0.1111111111111111
sssg18
I0
sg19
I18
sg20
I4
sg21
I250
ssS'DELPHIBG'
p2435
(dp2436
g3
(dp2437
g5
(dp2438
g7
F0.0026396832380114386
sg8
F6.0
sg9
F0.030612244897959183
ssg10
(dp2439
g7
F0.0017597888253409592
sg8
F4.0
sg9
F0.02040816326530612
ssg27
(dp2440
g7
F0.0004399472063352398
sg8
F1.0
sg9
F0.00510204081632653
ssg16
(dp2441
g7
F0.0013198416190057193
sg8
F3.0
sg9
F0.015306122448979591
ssg12
(dp2442
g7
F0.0061592608886933565
sg8
F14.0
sg9
F0.07142857142857142
sssg18
I0
sg19
I196
sg20
I14
sg21
I2273
ssS'JacopoSestili'
p2443
(dp2444
g3
(dp2445
g5
(dp2446
g7
F0.0022796352583586625
sg8
F6.0
sg9
F0.03636363636363636
ssg10
(dp2447
g7
F0.00037993920972644377
sg8
F1.0
sg9
F0.006060606060606061
ssg12
(dp2448
g7
F0.00303951367781155
sg8
F8.0
sg9
F0.048484848484848485
ssg14
(dp2449
g7
F0.00037993920972644377
sg8
F1.0
sg9
F0.006060606060606061
sssg18
I0
sg19
I165
sg20
I8
sg21
I2632
ssS'sjnwoh'
p2450
(dp2451
g3
(dp2452
g5
(dp2453
g7
F0.0008891523414344991
sg8
F3.0
sg9
F0.015306122448979591
ssg10
(dp2454
g7
F0.0008891523414344991
sg8
F3.0
sg9
F0.015306122448979591
ssg12
(dp2455
g7
F0.0023710729104919974
sg8
F8.0
sg9
F0.04081632653061224
ssg14
(dp2456
g7
F0.0002963841138114997
sg8
F1.0
sg9
F0.00510204081632653
ssg16
(dp2457
g7
F0.0002963841138114997
sg8
F1.0
sg9
F0.00510204081632653
sssg18
I0
sg19
I196
sg20
I8
sg21
I3374
ssS'CASAPUEBLO8'
p2458
(dp2459
g3
(dp2460
g12
(dp2461
g7
F0.0
sg8
F0.0
sg9
F0.0
sssg18
I0
sg19
I13
sg20
I0
sg21
I77
ssS'openp2pdesign'
p2462
(dp2463
g3
(dp2464
g5
(dp2465
g7
F0.004861744150714068
sg8
F16.0
sg9
F0.08888888888888889
ssg10
(dp2466
g7
F0.007900334244910361
sg8
F26.0
sg9
F0.14444444444444443
ssg12
(dp2467
g7
F0.02157398966879368
sg8
F71.0
sg9
F0.39444444444444443
ssg14
(dp2468
g7
F0.00425402613187481
sg8
F14.0
sg9
F0.07777777777777778
ssg16
(dp2469
g7
F0.004557885141294439
sg8
F15.0
sg9
F0.08333333333333333
sssg18
I0
sg19
I180
sg20
I71
sg21
I3291
ssS'jlmateos'
p2470
(dp2471
g3
(dp2472
g5
(dp2473
g7
F0.0003650967506389193
sg8
F1.0
sg9
F0.00625
ssg10
(dp2474
g7
F0.0003650967506389193
sg8
F1.0
sg9
F0.00625
ssg12
(dp2475
g7
F0.001095290251916758
sg8
F3.0
sg9
F0.01875
ssg16
(dp2476
g7
F0.0003650967506389193
sg8
F1.0
sg9
F0.00625
sssg18
I0
sg19
I160
sg20
I3
sg21
I2739
ssS'HyacintheBuiss1'
p2477
(dp2478
g3
(dp2479
g5
(dp2480
g7
F0.0016620498614958448
sg8
F3.0
sg9
F0.030927835051546393
ssg10
(dp2481
g7
F0.007202216066481994
sg8
F13.0
sg9
F0.13402061855670103
ssg27
(dp2482
g7
F0.00110803324099723
sg8
F2.0
sg9
F0.020618556701030927
ssg14
(dp2483
g7
F0.007202216066481994
sg8
F13.0
sg9
F0.13402061855670103
ssg12
(dp2484
g7
F0.017174515235457065
sg8
F31.0
sg9
F0.31958762886597936
sssg18
I0
sg19
I97
sg20
I31
sg21
I1805
ssS'PolicyCompassEU'
p2485
(dp2486
g109
I0
sg110
I198
sg111
I3168
sg112
I17
sg113
(dp2487
g115
(dp2488
g117
F0.0031565656565656565
sg118
F10.0
sg119
F0.050505050505050504
ssg120
(dp2489
g117
F0.0015782828282828283
sg118
F5.0
sg119
F0.025252525252525252
ssg126
(dp2490
g117
F0.005366161616161616
sg118
F17.0
sg119
F0.08585858585858586
ssg124
(dp2491
g117
F0.0003156565656565657
sg118
F1.0
sg119
F0.005050505050505051
ssg432
(dp2492
g117
F0.0003156565656565657
sg118
F1.0
sg119
F0.005050505050505051
ssssS'jordywos'
p2493
(dp2494
g3
(dp2495
g12
(dp2496
g7
F0.0
sg8
F0.0
sg9
F0.0
sssg18
I0
sg19
I60
sg20
I0
sg21
I314
ssS'RogerCremades'
p2497
(dp2498
g3
(dp2499
g5
(dp2500
g7
F0.002849740932642487
sg8
F11.0
sg9
F0.05699481865284974
ssg10
(dp2501
g7
F0.024352331606217616
sg8
F94.0
sg9
F0.48704663212435234
ssg27
(dp2502
g7
F0.0018134715025906736
sg8
F7.0
sg9
F0.03626943005181347
ssg14
(dp2503
g7
F0.021243523316062177
sg8
F82.0
sg9
F0.42487046632124353
ssg16
(dp2504
g7
F0.00466321243523316
sg8
F18.0
sg9
F0.09326424870466321
ssg12
(dp2505
g7
F0.054922279792746116
sg8
F212.0
sg9
F1.0984455958549222
sssg18
I0
sg19
I193
sg20
I212
sg21
I3860
ssS'BUPardeeCenter'
p2506
(dp2507
g3
(dp2508
g5
(dp2509
g7
F0.0021798365122615805
sg8
F8.0
sg9
F0.04060913705583756
ssg10
(dp2510
g7
F0.011716621253405994
sg8
F43.0
sg9
F0.2182741116751269
ssg27
(dp2511
g7
F0.0005449591280653951
sg8
F2.0
sg9
F0.01015228426395939
ssg14
(dp2512
g7
F0.0111716621253406
sg8
F41.0
sg9
F0.20812182741116753
ssg16
(dp2513
g7
F0.002452316076294278
sg8
F9.0
sg9
F0.04568527918781726
ssg12
(dp2514
g7
F0.02806539509536785
sg8
F103.0
sg9
F0.5228426395939086
sssg18
I0
sg19
I197
sg20
I103
sg21
I3670
ssS'lindod1972'
p2515
(dp2516
g3
(dp2517
g5
(dp2518
g7
F0.0010252904989747095
sg8
F3.0
sg9
F0.016304347826086956
ssg10
(dp2519
g7
F0.0037593984962406013
sg8
F11.0
sg9
F0.059782608695652176
ssg27
(dp2520
g7
F0.002734107997265892
sg8
F8.0
sg9
F0.043478260869565216
ssg14
(dp2521
g7
F0.0017088174982911825
sg8
F5.0
sg9
F0.02717391304347826
ssg16
(dp2522
g7
F0.0003417634996582365
sg8
F1.0
sg9
F0.005434782608695652
ssg12
(dp2523
g7
F0.009569377990430622
sg8
F28.0
sg9
F0.15217391304347827
sssg18
I0
sg19
I184
sg20
I28
sg21
I2926
ssS'Climate_Friend'
p2524
(dp2525
g3
(dp2526
g5
(dp2527
g7
F0.002346805736636245
sg8
F9.0
sg9
F0.04591836734693878
ssg10
(dp2528
g7
F0.027379400260756193
sg8
F105.0
sg9
F0.5357142857142857
ssg27
(dp2529
g7
F0.007301173402868318
sg8
F28.0
sg9
F0.14285714285714285
ssg14
(dp2530
g7
F0.023207301173402868
sg8
F89.0
sg9
F0.45408163265306123
ssg16
(dp2531
g7
F0.009126466753585397
sg8
F35.0
sg9
F0.17857142857142858
ssg12
(dp2532
g7
F0.06936114732724902
sg8
F266.0
sg9
F1.3571428571428572
sssg18
I0
sg19
I196
sg20
I266
sg21
I3835
ssS'aetw15'
p2533
(dp2534
g3
(dp2535
g5
(dp2536
g7
F0.0014602803738317756
sg8
F5.0
sg9
F0.02631578947368421
ssg10
(dp2537
g7
F0.002336448598130841
sg8
F8.0
sg9
F0.042105263157894736
ssg27
(dp2538
g7
F0.0002920560747663551
sg8
F1.0
sg9
F0.005263157894736842
ssg14
(dp2539
g7
F0.0002920560747663551
sg8
F1.0
sg9
F0.005263157894736842
ssg16
(dp2540
g7
F0.0011682242990654205
sg8
F4.0
sg9
F0.021052631578947368
ssg12
(dp2541
g7
F0.005549065420560747
sg8
F19.0
sg9
F0.1
sssg18
I0
sg19
I190
sg20
I19
sg21
I3424
ssS'Igorsemenoff'
p2542
(dp2543
g3
(dp2544
g12
(dp2545
g7
F0.0
sg8
F0.0
sg9
F0.0
sssg18
I0
sg19
I66
sg20
I0
sg21
I1555
ssS'stephenkinsella'
p2546
(dp2547
g109
I0
sg110
I195
sg111
I3691
sg112
I13
sg113
(dp2548
g115
(dp2549
g117
F0.001896505012191818
sg118
F7.0
sg119
F0.035897435897435895
ssg120
(dp2550
g117
F0.000812787862367922
sg118
F3.0
sg119
F0.015384615384615385
ssg126
(dp2551
g117
F0.003522080736927662
sg118
F13.0
sg119
F0.06666666666666667
ssg432
(dp2552
g117
F0.000812787862367922
sg118
F3.0
sg119
F0.015384615384615385
ssssS'repecCitEc'
p2553
(dp2554
g3
(dp2555
g5
(dp2556
g7
F0.0045871559633027525
sg8
F13.0
sg9
F0.08125
ssg12
(dp2557
g7
F0.0045871559633027525
sg8
F13.0
sg9
F0.08125
sssg18
I0
sg19
I160
sg20
I13
sg21
I2834
ssS'SAS_CDF'
p2558
(dp2559
g3
(dp2560
g5
(dp2561
g7
F0.0019476905954368391
sg8
F7.0
sg9
F0.035
ssg10
(dp2562
g7
F0.0019476905954368391
sg8
F7.0
sg9
F0.035
ssg27
(dp2563
g7
F0.0013912075681691708
sg8
F5.0
sg9
F0.025
ssg14
(dp2564
g7
F0.0002782415136338342
sg8
F1.0
sg9
F0.005
ssg16
(dp2565
g7
F0.0011129660545353367
sg8
F4.0
sg9
F0.02
ssg12
(dp2566
g7
F0.00667779632721202
sg8
F24.0
sg9
F0.12
sssg18
I0
sg19
I200
sg20
I24
sg21
I3594
ssS'vtchakarova'
p2567
(dp2568
g3
(dp2569
g5
(dp2570
g7
F0.002650957290132548
sg8
F9.0
sg9
F0.04945054945054945
ssg10
(dp2571
g7
F0.0029455081001472753
sg8
F10.0
sg9
F0.054945054945054944
ssg27
(dp2572
g7
F0.0002945508100147275
sg8
F1.0
sg9
F0.005494505494505495
ssg14
(dp2573
g7
F0.00235640648011782
sg8
F8.0
sg9
F0.04395604395604396
ssg16
(dp2574
g7
F0.0008836524300441826
sg8
F3.0
sg9
F0.016483516483516484
ssg12
(dp2575
g7
F0.009131075110456554
sg8
F31.0
sg9
F0.17032967032967034
sssg18
I0
sg19
I182
sg20
I31
sg21
I3395
ssS'nicolerycroft1'
p2576
(dp2577
g3
(dp2578
g5
(dp2579
g7
F0.0024894199651481204
sg8
F10.0
sg9
F0.05025125628140704
ssg10
(dp2580
g7
F0.006721433905899925
sg8
F27.0
sg9
F0.135678391959799
ssg27
(dp2581
g7
F0.0007468259895444362
sg8
F3.0
sg9
F0.01507537688442211
ssg14
(dp2582
g7
F0.00597460791635549
sg8
F24.0
sg9
F0.12060301507537688
ssg16
(dp2583
g7
F0.0019915359721184964
sg8
F8.0
sg9
F0.04020100502512563
ssg12
(dp2584
g7
F0.017923823749066467
sg8
F72.0
sg9
F0.36180904522613067
sssg18
I0
sg19
I199
sg20
I72
sg21
I4017
ssS'Etp4H'
p2585
(dp2586
g3
(dp2587
g5
(dp2588
g7
F0.0016835016835016834
sg8
F6.0
sg9
F0.031413612565445025
ssg10
(dp2589
g7
F0.0005611672278338945
sg8
F2.0
sg9
F0.010471204188481676
ssg12
(dp2590
g7
F0.0028058361391694723
sg8
F10.0
sg9
F0.05235602094240838
ssg14
(dp2591
g7
F0.0005611672278338945
sg8
F2.0
sg9
F0.010471204188481676
sssg18
I0
sg19
I191
sg20
I10
sg21
I3564
ssS'ISEEORG'
p2592
(dp2593
g3
(dp2594
g5
(dp2595
g7
F0.0013131976362442547
sg8
F4.0
sg9
F0.023121387283236993
ssg10
(dp2596
g7
F0.030860144451739988
sg8
F94.0
sg9
F0.5433526011560693
ssg27
(dp2597
g7
F0.00032829940906106366
sg8
F1.0
sg9
F0.005780346820809248
ssg14
(dp2598
g7
F0.025279054497701903
sg8
F77.0
sg9
F0.44508670520231214
ssg16
(dp2599
g7
F0.00984898227183191
sg8
F30.0
sg9
F0.17341040462427745
ssg12
(dp2600
g7
F0.06762967826657912
sg8
F206.0
sg9
F1.1907514450867052
sssg18
I0
sg19
I173
sg20
I206
sg21
I3046
ssS'SimulPast'
p2601
(dp2602
g109
I0
sg110
I160
sg111
I2243
sg112
I29
sg113
(dp2603
g115
(dp2604
g117
F0.004458314757021846
sg118
F10.0
sg119
F0.0625
ssg120
(dp2605
g117
F0.004012483281319661
sg118
F9.0
sg119
F0.05625
ssg126
(dp2606
g117
F0.012929112795363353
sg118
F29.0
sg119
F0.18125
ssg124
(dp2607
g117
F0.003120820329915292
sg118
F7.0
sg119
F0.04375
ssg432
(dp2608
g117
F0.0013374944271065537
sg118
F3.0
sg119
F0.01875
ssssS'RockJimford'
p2609
(dp2610
g3
(dp2611
g5
(dp2612
g7
F0.003462385898646522
sg8
F11.0
sg9
F0.05699481865284974
ssg10
(dp2613
g7
F0.0022033364809568774
sg8
F7.0
sg9
F0.03626943005181347
ssg27
(dp2614
g7
F0.0003147623544224111
sg8
F1.0
sg9
F0.0051813471502590676
ssg14
(dp2615
g7
F0.0003147623544224111
sg8
F1.0
sg9
F0.0051813471502590676
ssg16
(dp2616
g7
F0.0012590494176896443
sg8
F4.0
sg9
F0.02072538860103627
ssg12
(dp2617
g7
F0.007554296506137866
sg8
F24.0
sg9
F0.12435233160621761
sssg18
I0
sg19
I193
sg20
I24
sg21
I3177
ssS'dlacalle_IA'
p2618
(dp2619
g3
(dp2620
g5
(dp2621
g7
F0.0009433962264150943
sg8
F3.0
sg9
F0.015706806282722512
ssg10
(dp2622
g7
F0.0031446540880503146
sg8
F10.0
sg9
F0.05235602094240838
ssg12
(dp2623
g7
F0.006918238993710692
sg8
F22.0
sg9
F0.11518324607329843
ssg14
(dp2624
g7
F0.0018867924528301887
sg8
F6.0
sg9
F0.031413612565445025
ssg16
(dp2625
g7
F0.0009433962264150943
sg8
F3.0
sg9
F0.015706806282722512
sssg18
I0
sg19
I191
sg20
I22
sg21
I3180
ssS'syroter_'
p2626
(dp2627
g3
(dp2628
g12
(dp2629
g7
F0.0
sg8
F0.0
sg9
F0.0
sssg18
I0
sg19
I5
sg20
I0
sg21
I27
ssS'karlape45'
p2630
(dp2631
g3
(dp2632
g5
(dp2633
g7
F0.0032849712565015056
sg8
F12.0
sg9
F0.061855670103092786
ssg10
(dp2634
g7
F0.004927456884752259
sg8
F18.0
sg9
F0.09278350515463918
ssg12
(dp2635
g7
F0.01341363263071448
sg8
F49.0
sg9
F0.25257731958762886
ssg14
(dp2636
g7
F0.0032849712565015056
sg8
F12.0
sg9
F0.061855670103092786
ssg16
(dp2637
g7
F0.0019162332329592116
sg8
F7.0
sg9
F0.03608247422680412
sssg18
I0
sg19
I194
sg20
I49
sg21
I3653
ssS'ciro'
p2638
(dp2639
g3
(dp2640
g5
(dp2641
g7
F0.0022459292532285235
sg8
F8.0
sg9
F0.0425531914893617
ssg10
(dp2642
g7
F0.0025266704098820887
sg8
F9.0
sg9
F0.047872340425531915
ssg12
(dp2643
g7
F0.00673778775968557
sg8
F24.0
sg9
F0.1276595744680851
ssg14
(dp2644
g7
F0.00028074115665356543
sg8
F1.0
sg9
F0.005319148936170213
ssg16
(dp2645
g7
F0.0016844469399213925
sg8
F6.0
sg9
F0.031914893617021274
sssg18
I0
sg19
I188
sg20
I24
sg21
I3562
ssS'bassindales'
p2646
(dp2647
g3
(dp2648
g12
(dp2649
g7
F0.0
sg8
F0.0
sg9
F0.0
sssg18
I0
sg19
I4
sg20
I0
sg21
I87
ssS'CanvasVC'
p2650
(dp2651
g3
(dp2652
g5
(dp2653
g7
F0.004844685095468795
sg8
F17.0
sg9
F0.08542713567839195
ssg10
(dp2654
g7
F0.0008549444286121402
sg8
F3.0
sg9
F0.01507537688442211
ssg12
(dp2655
g7
F0.006554573952693075
sg8
F23.0
sg9
F0.11557788944723618
ssg14
(dp2656
g7
F0.0005699629524080935
sg8
F2.0
sg9
F0.010050251256281407
ssg16
(dp2657
g7
F0.00028498147620404675
sg8
F1.0
sg9
F0.005025125628140704
sssg18
I0
sg19
I199
sg20
I23
sg21
I3509
ssS'BluewaterGlobe'
p2658
(dp2659
g3
(dp2660
g5
(dp2661
g7
F0.0021618282890673254
sg8
F7.0
sg9
F0.03932584269662921
ssg10
(dp2662
g7
F0.0067943174799258805
sg8
F22.0
sg9
F0.12359550561797752
ssg12
(dp2663
g7
F0.01852995676343422
sg8
F60.0
sg9
F0.33707865168539325
ssg14
(dp2664
g7
F0.004632489190858555
sg8
F15.0
sg9
F0.08426966292134831
ssg16
(dp2665
g7
F0.004941321803582459
sg8
F16.0
sg9
F0.0898876404494382
sssg18
I0
sg19
I178
sg20
I60
sg21
I3238
ssS'FETFlagships'
p2666
(dp2667
g3
(dp2668
g5
(dp2669
g7
F0.0060083594566353185
sg8
F23.0
sg9
F0.12041884816753927
ssg12
(dp2670
g7
F0.0060083594566353185
sg8
F23.0
sg9
F0.12041884816753927
sssg18
I0
sg19
I191
sg20
I23
sg21
I3828
ssS'DougThorpe_com'
p2671
(dp2672
g3
(dp2673
g5
(dp2674
g7
F0.001902587519025875
sg8
F5.0
sg9
F0.02564102564102564
ssg10
(dp2675
g7
F0.00076103500761035
sg8
F2.0
sg9
F0.010256410256410256
ssg12
(dp2676
g7
F0.003424657534246575
sg8
F9.0
sg9
F0.046153846153846156
ssg16
(dp2677
g7
F0.00076103500761035
sg8
F2.0
sg9
F0.010256410256410256
sssg18
I0
sg19
I195
sg20
I9
sg21
I2628
ssS'monicanagore'
p2678
(dp2679
g3
(dp2680
g5
(dp2681
g7
F0.006608695652173913
sg8
F19.0
sg9
F0.12418300653594772
ssg10
(dp2682
g7
F0.006956521739130435
sg8
F20.0
sg9
F0.13071895424836602
ssg27
(dp2683
g7
F0.00034782608695652176
sg8
F1.0
sg9
F0.006535947712418301
ssg14
(dp2684
g7
F0.0017391304347826088
sg8
F5.0
sg9
F0.032679738562091505
ssg16
(dp2685
g7
F0.00591304347826087
sg8
F17.0
sg9
F0.1111111111111111
ssg12
(dp2686
g7
F0.021565217391304348
sg8
F62.0
sg9
F0.40522875816993464
sssg18
I0
sg19
I153
sg20
I62
sg21
I2875
ssS'mixalis_papako'
p2687
(dp2688
g3
(dp2689
g12
(dp2690
g7
F0.0
sg8
F0.0
sg9
F0.0
sssg18
I0
sg19
I9
sg20
I0
sg21
I119
ssS'CherryEnergy1'
p2691
(dp2692
g3
(dp2693
g5
(dp2694
g7
F0.0025795356835769563
sg8
F9.0
sg9
F0.046153846153846156
ssg10
(dp2695
g7
F0.006592146746918888
sg8
F23.0
sg9
F0.11794871794871795
ssg27
(dp2696
g7
F0.0011464603038119805
sg8
F4.0
sg9
F0.020512820512820513
ssg14
(dp2697
g7
F0.005445686443106907
sg8
F19.0
sg9
F0.09743589743589744
ssg16
(dp2698
g7
F0.0008598452278589854
sg8
F3.0
sg9
F0.015384615384615385
ssg12
(dp2699
g7
F0.01662367440527372
sg8
F58.0
sg9
F0.29743589743589743
sssg18
I0
sg19
I195
sg20
I58
sg21
I3489
ssS'JennysVisionP'
p2700
(dp2701
g3
(dp2702
g5
(dp2703
g7
F0.0035486160397444995
sg8
F10.0
sg9
F0.055248618784530384
ssg12
(dp2704
g7
F0.0035486160397444995
sg8
F10.0
sg9
F0.055248618784530384
sssg18
I0
sg19
I181
sg20
I10
sg21
I2818
ssS'anaishannah'
p2705
(dp2706
g109
I0
sg110
I163
sg111
I2455
sg112
I110
sg113
(dp2707
g126
(dp2708
g117
F0.04480651731160896
sg118
F110.0
sg119
F0.6748466257668712
ssg115
(dp2709
g117
F0.006109979633401222
sg118
F15.0
sg119
F0.09202453987730061
ssg120
(dp2710
g117
F0.017922606924643585
sg118
F44.0
sg119
F0.26993865030674846
ssg122
(dp2711
g117
F0.000814663951120163
sg118
F2.0
sg119
F0.012269938650306749
ssg124
(dp2712
g117
F0.01670061099796334
sg118
F41.0
sg119
F0.25153374233128833
ssg432
(dp2713
g117
F0.003258655804480652
sg118
F8.0
sg119
F0.049079754601226995
ssssS'joaobarbosa0989'
p2714
(dp2715
g3
(dp2716
g12
(dp2717
g7
F0.0
sg8
F0.0
sg9
F0.0
sssg18
I0
sg19
I4
sg20
I0
sg21
I21
ssS'DinoFiorita'
p2718
(dp2719
g3
(dp2720
g12
(dp2721
g7
F0.0
sg8
F0.0
sg9
F0.0
sssg18
I0
sg19
I5
sg20
I0
sg21
I30
ssS'PPFEnergia'
p2722
(dp2723
g3
(dp2724
g12
(dp2725
g7
F0.0
sg8
F0.0
sg9
F0.0
sssg18
I0
sg19
I25
sg20
I0
sg21
I231
ssS'recofunghi'
p2726
(dp2727
g3
(dp2728
g10
(dp2729
g7
F0.013333333333333334
sg8
F2.0
sg9
F0.13333333333333333
ssg12
(dp2730
g7
F0.03333333333333333
sg8
F5.0
sg9
F0.3333333333333333
ssg14
(dp2731
g7
F0.013333333333333334
sg8
F2.0
sg9
F0.13333333333333333
ssg16
(dp2732
g7
F0.006666666666666667
sg8
F1.0
sg9
F0.06666666666666667
sssg18
I0
sg19
I15
sg20
I5
sg21
I150
ssS'Benmccreton1'
p2733
(dp2734
g3
(dp2735
g12
(dp2736
g7
F0.0
sg8
F0.0
sg9
F0.0
sssg18
I0
sg19
I174
sg20
I0
sg21
I1490
ssS'Barone54924381'
p2737
(dp2738
g3
(dp2739
g5
(dp2740
g7
F0.004411764705882353
sg8
F3.0
sg9
F0.05357142857142857
ssg10
(dp2741
g7
F0.0029411764705882353
sg8
F2.0
sg9
F0.03571428571428571
ssg12
(dp2742
g7
F0.010294117647058823
sg8
F7.0
sg9
F0.125
ssg16
(dp2743
g7
F0.0029411764705882353
sg8
F2.0
sg9
F0.03571428571428571
sssg18
I0
sg19
I56
sg20
I7
sg21
I680
ssS'palpi643'
p2744
(dp2745
g3
(dp2746
g5
(dp2747
g7
F0.000784313725490196
sg8
F1.0
sg9
F0.013157894736842105
ssg10
(dp2748
g7
F0.002352941176470588
sg8
F3.0
sg9
F0.039473684210526314
ssg12
(dp2749
g7
F0.005490196078431373
sg8
F7.0
sg9
F0.09210526315789473
ssg14
(dp2750
g7
F0.002352941176470588
sg8
F3.0
sg9
F0.039473684210526314
sssg18
I0
sg19
I76
sg20
I7
sg21
I1275
ssS'mallenbaker'
p2751
(dp2752
g3
(dp2753
g5
(dp2754
g7
F0.0031672905269219693
sg8
F11.0
sg9
F0.05527638190954774
ssg10
(dp2755
g7
F0.030233227756982436
sg8
F105.0
sg9
F0.5276381909547738
ssg12
(dp2756
g7
F0.07774258566081198
sg8
F270.0
sg9
F1.35678391959799
ssg14
(dp2757
g7
F0.02303484019579614
sg8
F80.0
sg9
F0.4020100502512563
ssg16
(dp2758
g7
F0.02130722718111143
sg8
F74.0
sg9
F0.37185929648241206
sssg18
I0
sg19
I199
sg20
I270
sg21
I3473
ssS'IBSEN_H2020'
p2759
(dp2760
g3
(dp2761
g5
(dp2762
g7
F0.0020761245674740486
sg8
F6.0
sg9
F0.0375
ssg10
(dp2763
g7
F0.00795847750865052
sg8
F23.0
sg9
F0.14375
ssg27
(dp2764
g7
F0.00034602076124567473
sg8
F1.0
sg9
F0.00625
ssg14
(dp2765
g7
F0.002422145328719723
sg8
F7.0
sg9
F0.04375
ssg16
(dp2766
g7
F0.005536332179930796
sg8
F16.0
sg9
F0.1
ssg12
(dp2767
g7
F0.01833910034602076
sg8
F53.0
sg9
F0.33125
sssg18
I0
sg19
I160
sg20
I53
sg21
I2890
ssS'VeronicaClima'
p2768
(dp2769
g3
(dp2770
g10
(dp2771
g7
F0.04804804804804805
sg8
F16.0
sg9
F0.8888888888888888
ssg12
(dp2772
g7
F0.0990990990990991
sg8
F33.0
sg9
F1.8333333333333333
ssg14
(dp2773
g7
F0.04804804804804805
sg8
F16.0
sg9
F0.8888888888888888
ssg16
(dp2774
g7
F0.003003003003003003
sg8
F1.0
sg9
F0.05555555555555555
sssg18
I0
sg19
I18
sg20
I33
sg21
I333
ssS'bethscleft'
p2775
(dp2776
g3
(dp2777
g5
(dp2778
g7
F0.0022675736961451248
sg8
F2.0
sg9
F0.03773584905660377
ssg12
(dp2779
g7
F0.0022675736961451248
sg8
F2.0
sg9
F0.03773584905660377
sssg18
I0
sg19
I53
sg20
I2
sg21
I882
ssS'AldeiDiogo'
p2780
(dp2781
g3
(dp2782
g5
(dp2783
g7
F0.001098297638660077
sg8
F2.0
sg9
F0.017241379310344827
ssg12
(dp2784
g7
F0.001098297638660077
sg8
F2.0
sg9
F0.017241379310344827
sssg18
I0
sg19
I116
sg20
I2
sg21
I1821
ssS'Mlopezforero'
p2785
(dp2786
g3
(dp2787
g5
(dp2788
g7
F0.0009505703422053232
sg8
F1.0
sg9
F0.015384615384615385
ssg10
(dp2789
g7
F0.02091254752851711
sg8
F22.0
sg9
F0.3384615384615385
ssg27
(dp2790
g7
F0.0019011406844106464
sg8
F2.0
sg9
F0.03076923076923077
ssg14
(dp2791
g7
F0.02091254752851711
sg8
F22.0
sg9
F0.3384615384615385
ssg16
(dp2792
g7
F0.0009505703422053232
sg8
F1.0
sg9
F0.015384615384615385
ssg12
(dp2793
g7
F0.045627376425855515
sg8
F48.0
sg9
F0.7384615384615385
sssg18
I0
sg19
I65
sg20
I48
sg21
I1052
ssS'fabiofxvanni'
p2794
(dp2795
g3
(dp2796
g5
(dp2797
g7
F0.0013245033112582781
sg8
F3.0
sg9
F0.015789473684210527
ssg10
(dp2798
g7
F0.017218543046357615
sg8
F39.0
sg9
F0.20526315789473684
ssg27
(dp2799
g7
F0.003532008830022075
sg8
F8.0
sg9
F0.042105263157894736
ssg14
(dp2800
g7
F0.016335540838852098
sg8
F37.0
sg9
F0.19473684210526315
ssg16
(dp2801
g7
F0.0030905077262693157
sg8
F7.0
sg9
F0.03684210526315789
ssg12
(dp2802
g7
F0.04150110375275938
sg8
F94.0
sg9
F0.49473684210526314
sssg18
I0
sg19
I190
sg20
I94
sg21
I2265
ssS'KoljaKleineberg'
p2803
(dp2804
g3
(dp2805
g5
(dp2806
g7
F0.0014947683109118087
sg8
F4.0
sg9
F0.022988505747126436
ssg10
(dp2807
g7
F0.004110612855007474
sg8
F11.0
sg9
F0.06321839080459771
ssg12
(dp2808
g7
F0.0085949177877429
sg8
F23.0
sg9
F0.13218390804597702
ssg14
(dp2809
g7
F0.0014947683109118087
sg8
F4.0
sg9
F0.022988505747126436
ssg16
(dp2810
g7
F0.0014947683109118087
sg8
F4.0
sg9
F0.022988505747126436
sssg18
I0
sg19
I174
sg20
I23
sg21
I2676
ssS'anielloiorio197'
p2811
(dp2812
g3
(dp2813
g12
(dp2814
g7
F0.0
sg8
F0.0
sg9
F0.0
sssg18
I0
sg19
I17
sg20
I0
sg21
I147
ssS'DatingCH'
p2815
(dp2816
g3
(dp2817
g12
(dp2818
g7
F0.0
sg8
F0.0
sg9
F0.0
sssg18
I0
sg19
I8
sg20
I0
sg21
I24
ssS'fun_rich'
p2819
(dp2820
g3
(dp2821
g12
(dp2822
g7
F0.0
sg8
F0.0
sg9
F0.0
sssg18
I0
sg19
I153
sg20
I0
sg21
I937
ssS'RitaMaria_dRC'
p2823
(dp2824
g3
(dp2825
g10
(dp2826
g7
F0.00646551724137931
sg8
F3.0
sg9
F0.1
ssg12
(dp2827
g7
F0.01293103448275862
sg8
F6.0
sg9
F0.2
ssg14
(dp2828
g7
F0.00646551724137931
sg8
F3.0
sg9
F0.1
sssg18
I0
sg19
I30
sg20
I6
sg21
I464
ssS'oil_products'
p2829
(dp2830
g3
(dp2831
g5
(dp2832
g7
F0.002932551319648094
sg8
F3.0
sg9
F0.06521739130434782
ssg12
(dp2833
g7
F0.002932551319648094
sg8
F3.0
sg9
F0.06521739130434782
sssg18
I0
sg19
I46
sg20
I3
sg21
I1023
ssS'rgod777'
p2834
(dp2835
g3
(dp2836
g5
(dp2837
g7
F0.0053898670499461015
sg8
F15.0
sg9
F0.09803921568627451
ssg10
(dp2838
g7
F0.0010779734099892202
sg8
F3.0
sg9
F0.0196078431372549
ssg12
(dp2839
g7
F0.006827164929931728
sg8
F19.0
sg9
F0.12418300653594772
ssg16
(dp2840
g7
F0.00035932446999640676
sg8
F1.0
sg9
F0.006535947712418301
sssg18
I0
sg19
I153
sg20
I19
sg21
I2783
ssS'EnergyNN'
p2841
(dp2842
g3
(dp2843
g5
(dp2844
g7
F0.0026433509556730377
sg8
F13.0
sg9
F0.06806282722513089
ssg10
(dp2845
g7
F0.0075233834892232615
sg8
F37.0
sg9
F0.193717277486911
ssg12
(dp2846
g7
F0.016266775111834077
sg8
F80.0
sg9
F0.418848167539267
ssg14
(dp2847
g7
F0.0058967059780398534
sg8
F29.0
sg9
F0.1518324607329843
ssg16
(dp2848
g7
F0.00020333468889792598
sg8
F1.0
sg9
F0.005235602094240838
sssg18
I0
sg19
I191
sg20
I80
sg21
I4918
ssS'thewindturbiner'
p2849
(dp2850
g3
(dp2851
g5
(dp2852
g7
F0.0013084723585214263
sg8
F4.0
sg9
F0.02040816326530612
ssg10
(dp2853
g7
F0.007196597971867844
sg8
F22.0
sg9
F0.11224489795918367
ssg12
(dp2854
g7
F0.016683022571148183
sg8
F51.0
sg9
F0.2602040816326531
ssg14
(dp2855
g7
F0.007196597971867844
sg8
F22.0
sg9
F0.11224489795918367
ssg16
(dp2856
g7
F0.0009813542688910696
sg8
F3.0
sg9
F0.015306122448979591
sssg18
I0
sg19
I196
sg20
I51
sg21
I3057
ssS'AndreaBindo'
p2857
(dp2858
g3
(dp2859
g5
(dp2860
g7
F0.00176522506619594
sg8
F2.0
sg9
F0.03076923076923077
ssg12
(dp2861
g7
F0.00176522506619594
sg8
F2.0
sg9
F0.03076923076923077
sssg18
I0
sg19
I65
sg20
I2
sg21
I1133
ssS'Gabriel_Hatem'
p2862
(dp2863
g3
(dp2864
g10
(dp2865
g7
F0.0625
sg8
F1.0
sg9
F0.25
ssg12
(dp2866
g7
F0.0625
sg8
F1.0
sg9
F0.25
sssg18
I0
sg19
I4
sg20
I1
sg21
I16
ssS'stefanodigiorg3'
p2867
(dp2868
g3
(dp2869
g12
(dp2870
g7
F0.0
sg8
F0.0
sg9
F0.0
sssg18
I0
sg19
I17
sg20
I0
sg21
I187
ssS'FiramisCompany'
p2871
(dp2872
g3
(dp2873
g5
(dp2874
g7
F0.001568627450980392
sg8
F4.0
sg9
F0.024242424242424242
ssg27
(dp2875
g7
F0.0027450980392156863
sg8
F7.0
sg9
F0.04242424242424243
ssg12
(dp2876
g7
F0.004313725490196078
sg8
F11.0
sg9
F0.06666666666666667
sssg18
I0
sg19
I165
sg20
I11
sg21
I2550
ssS'the_Wolf_of_BTC'
p2877
(dp2878
g3
(dp2879
g5
(dp2880
g7
F0.0030109145652992097
sg8
F8.0
sg9
F0.04597701149425287
ssg10
(dp2881
g7
F0.0003763643206624012
sg8
F1.0
sg9
F0.005747126436781609
ssg27
(dp2882
g7
F0.0015054572826496049
sg8
F4.0
sg9
F0.022988505747126436
ssg12
(dp2883
g7
F0.004892736168611215
sg8
F13.0
sg9
F0.07471264367816093
sssg18
I0
sg19
I174
sg20
I13
sg21
I2657
ssS'firth_john'
p2884
(dp2885
g3
(dp2886
g5
(dp2887
g7
F0.0032079323417906094
sg8
F11.0
sg9
F0.05641025641025641
ssg10
(dp2888
g7
F0.024496937882764653
sg8
F84.0
sg9
F0.4307692307692308
ssg27
(dp2889
g7
F0.0005832604257801109
sg8
F2.0
sg9
F0.010256410256410256
ssg14
(dp2890
g7
F0.023913677456984545
sg8
F82.0
sg9
F0.4205128205128205
ssg16
(dp2891
g7
F0.0008748906386701663
sg8
F3.0
sg9
F0.015384615384615385
ssg12
(dp2892
g7
F0.05307669874599009
sg8
F182.0
sg9
F0.9333333333333333
sssg18
I0
sg19
I195
sg20
I182
sg21
I3429
ssS'7softley'
p2893
(dp2894
g3
(dp2895
g5
(dp2896
g7
F0.0019558535903883767
sg8
F7.0
sg9
F0.035897435897435895
ssg10
(dp2897
g7
F0.0008382229673093043
sg8
F3.0
sg9
F0.015384615384615385
ssg12
(dp2898
g7
F0.003073484213467449
sg8
F11.0
sg9
F0.05641025641025641
ssg16
(dp2899
g7
F0.0002794076557697681
sg8
F1.0
sg9
F0.005128205128205128
sssg18
I0
sg19
I195
sg20
I11
sg21
I3579
ssS'SodreLuciana'
p2900
(dp2901
g3
(dp2902
g5
(dp2903
g7
F0.0026702269692923898
sg8
F4.0
sg9
F0.04
ssg10
(dp2904
g7
F0.0026702269692923898
sg8
F4.0
sg9
F0.04
ssg12
(dp2905
g7
F0.00801068090787717
sg8
F12.0
sg9
F0.12
ssg14
(dp2906
g7
F0.0020026702269692926
sg8
F3.0
sg9
F0.03
ssg16
(dp2907
g7
F0.0006675567423230974
sg8
F1.0
sg9
F0.01
sssg18
I0
sg19
I100
sg20
I12
sg21
I1498
ssS'Monithon'
p2908
(dp2909
g3
(dp2910
g10
(dp2911
g7
F0.006493506493506494
sg8
F1.0
sg9
F0.14285714285714285
ssg12
(dp2912
g7
F0.012987012987012988
sg8
F2.0
sg9
F0.2857142857142857
ssg16
(dp2913
g7
F0.006493506493506494
sg8
F1.0
sg9
F0.14285714285714285
sssg18
I0
sg19
I7
sg20
I2
sg21
I154
ssS'ChrisGGeorgas'
p2914
(dp2915
g3
(dp2916
g12
(dp2917
g7
F0.0
sg8
F0.0
sg9
F0.0
sssg18
I0
sg19
I200
sg20
I0
sg21
I3341
ssS'FcoKienzle'
p2918
(dp2919
g3
(dp2920
g5
(dp2921
g7
F0.00512656199935918
sg8
F16.0
sg9
F0.08247422680412371
ssg10
(dp2922
g7
F0.0003204101249599487
sg8
F1.0
sg9
F0.005154639175257732
ssg12
(dp2923
g7
F0.005446972124319128
sg8
F17.0
sg9
F0.08762886597938144
sssg18
I0
sg19
I194
sg20
I17
sg21
I3121
ssS'kate3lakes'
p2924
(dp2925
g3
(dp2926
g5
(dp2927
g7
F0.0010302197802197802
sg8
F3.0
sg9
F0.015463917525773196
ssg10
(dp2928
g7
F0.00034340659340659343
sg8
F1.0
sg9
F0.005154639175257732
ssg12
(dp2929
g7
F0.001717032967032967
sg8
F5.0
sg9
F0.02577319587628866
ssg14
(dp2930
g7
F0.00034340659340659343
sg8
F1.0
sg9
F0.005154639175257732
sssg18
I0
sg19
I194
sg20
I5
sg21
I2912
ssS'GiovanniPisan1'
p2931
(dp2932
g3
(dp2933
g12
(dp2934
g7
F0.0
sg8
F0.0
sg9
F0.0
sssg18
I0
sg19
I2
sg20
I0
sg21
I39
ssS'bdp_smith'
p2935
(dp2936
g3
(dp2937
g5
(dp2938
g7
F0.0008275862068965517
sg8
F3.0
sg9
F0.015463917525773196
ssg10
(dp2939
g7
F0.0074482758620689656
sg8
F27.0
sg9
F0.13917525773195877
ssg27
(dp2940
g7
F0.001103448275862069
sg8
F4.0
sg9
F0.020618556701030927
ssg14
(dp2941
g7
F0.006344827586206896
sg8
F23.0
sg9
F0.11855670103092783
ssg16
(dp2942
g7
F0.0008275862068965517
sg8
F3.0
sg9
F0.015463917525773196
ssg12
(dp2943
g7
F0.016551724137931035
sg8
F60.0
sg9
F0.30927835051546393
sssg18
I0
sg19
I194
sg20
I60
sg21
I3625
ssS'GUEGUENDaniel'
p2944
(dp2945
g3
(dp2946
g5
(dp2947
g7
F0.002412961047914512
sg8
F7.0
sg9
F0.05
ssg10
(dp2948
g7
F0.0003447087211306446
sg8
F1.0
sg9
F0.007142857142857143
ssg12
(dp2949
g7
F0.0031023784901758012
sg8
F9.0
sg9
F0.06428571428571428
ssg14
(dp2950
g7
F0.0003447087211306446
sg8
F1.0
sg9
F0.007142857142857143
sssg18
I0
sg19
I140
sg20
I9
sg21
I2901
ssS'_NicoFrey'
p2951
(dp2952
g3
(dp2953
g5
(dp2954
g7
F0.001924001924001924
sg8
F4.0
sg9
F0.031496062992125984
ssg10
(dp2955
g7
F0.044733044733044736
sg8
F93.0
sg9
F0.7322834645669292
ssg27
(dp2956
g7
F0.008658008658008658
sg8
F18.0
sg9
F0.14173228346456693
ssg14
(dp2957
g7
F0.040885040885040885
sg8
F85.0
sg9
F0.6692913385826772
ssg16
(dp2958
g7
F0.016835016835016835
sg8
F35.0
sg9
F0.2755905511811024
ssg12
(dp2959
g7
F0.11303511303511303
sg8
F235.0
sg9
F1.8503937007874016
sssg18
I0
sg19
I127
sg20
I235
sg21
I2079
ssS'Schumannpoet'
p2960
(dp2961
g3
(dp2962
g12
(dp2963
g7
F0.0
sg8
F0.0
sg9
F0.0
sssg18
I0
sg19
I60
sg20
I0
sg21
I573
ssS'Fede_Botta'
p2964
(dp2965
g3
(dp2966
g5
(dp2967
g7
F0.0005943536404160475
sg8
F2.0
sg9
F0.010101010101010102
ssg10
(dp2968
g7
F0.003863298662704309
sg8
F13.0
sg9
F0.06565656565656566
ssg12
(dp2969
g7
F0.008023774145616641
sg8
F27.0
sg9
F0.13636363636363635
ssg14
(dp2970
g7
F0.00029717682020802375
sg8
F1.0
sg9
F0.005050505050505051
ssg16
(dp2971
g7
F0.0032689450222882616
sg8
F11.0
sg9
F0.05555555555555555
sssg18
I0
sg19
I198
sg20
I27
sg21
I3365
ssS'amapr1'
p2972
(dp2973
g3
(dp2974
g12
(dp2975
g7
F0.0
sg8
F0.0
sg9
F0.0
sssg18
I0
sg19
I4
sg20
I0
sg21
I38
ssS'olivierhoedeman'
p2976
(dp2977
g109
I0
sg110
I148
sg111
I2995
sg112
I20
sg113
(dp2978
g126
(dp2979
g117
F0.00667779632721202
sg118
F20.0
sg119
F0.13513513513513514
ssg115
(dp2980
g117
F0.001669449081803005
sg118
F5.0
sg119
F0.033783783783783786
ssg120
(dp2981
g117
F0.002003338898163606
sg118
F6.0
sg119
F0.04054054054054054
ssg122
(dp2982
g117
F0.001001669449081803
sg118
F3.0
sg119
F0.02027027027027027
ssg124
(dp2983
g117
F0.001335559265442404
sg118
F4.0
sg119
F0.02702702702702703
ssg432
(dp2984
g117
F0.000667779632721202
sg118
F2.0
sg119
F0.013513513513513514
ssssS'MartaCalderaro'
p2985
(dp2986
g3
(dp2987
g5
(dp2988
g7
F0.004750593824228029
sg8
F16.0
sg9
F0.08648648648648649
ssg10
(dp2989
g7
F0.0002969121140142518
sg8
F1.0
sg9
F0.005405405405405406
ssg27
(dp2990
g7
F0.0005938242280285036
sg8
F2.0
sg9
F0.010810810810810811
ssg16
(dp2991
g7
F0.0002969121140142518
sg8
F1.0
sg9
F0.005405405405405406
ssg12
(dp2992
g7
F0.0059382422802850355
sg8
F20.0
sg9
F0.10810810810810811
sssg18
I0
sg19
I185
sg20
I20
sg21
I3368
ssS'guyyeomans'
p2993
(dp2994
g3
(dp2995
g5
(dp2996
g7
F0.0039090262970859985
sg8
F11.0
sg9
F0.05759162303664921
ssg10
(dp2997
g7
F0.0017768301350390902
sg8
F5.0
sg9
F0.02617801047120419
ssg12
(dp2998
g7
F0.007107320540156361
sg8
F20.0
sg9
F0.10471204188481675
ssg14
(dp2999
g7
F0.0014214641080312722
sg8
F4.0
sg9
F0.020942408376963352
sssg18
I0
sg19
I191
sg20
I20
sg21
I2814
ssS'zCommunicationz'
p3000
(dp3001
g3
(dp3002
g5
(dp3003
g7
F0.0023990403838464614
sg8
F6.0
sg9
F0.03260869565217391
ssg12
(dp3004
g7
F0.0023990403838464614
sg8
F6.0
sg9
F0.03260869565217391
sssg18
I0
sg19
I184
sg20
I6
sg21
I2501
ssS'ISI_Fondazione'
p3005
(dp3006
g3
(dp3007
g5
(dp3008
g7
F0.001349527665317139
sg8
F3.0
sg9
F0.022058823529411766
ssg10
(dp3009
g7
F0.005398110661268556
sg8
F12.0
sg9
F0.08823529411764706
ssg27
(dp3010
g7
F0.000899685110211426
sg8
F2.0
sg9
F0.014705882352941176
ssg16
(dp3011
g7
F0.004948268106162843
sg8
F11.0
sg9
F0.08088235294117647
ssg12
(dp3012
g7
F0.012595591542959963
sg8
F28.0
sg9
F0.20588235294117646
sssg18
I0
sg19
I136
sg20
I28
sg21
I2223
ssS'BlacMambaMMA'
p3013
(dp3014
g3
(dp3015
g5
(dp3016
g7
F0.00034698126301179735
sg8
F1.0
sg9
F0.0056179775280898875
ssg10
(dp3017
g7
F0.0013879250520471894
sg8
F4.0
sg9
F0.02247191011235955
ssg12
(dp3018
g7
F0.002775850104094379
sg8
F8.0
sg9
F0.0449438202247191
ssg14
(dp3019
g7
F0.001040943789035392
sg8
F3.0
sg9
F0.016853932584269662
sssg18
I0
sg19
I178
sg20
I8
sg21
I2882
ssS'brianla1'
p3020
(dp3021
g3
(dp3022
g5
(dp3023
g7
F0.005766062602965404
sg8
F21.0
sg9
F0.1065989847715736
ssg10
(dp3024
g7
F0.006589785831960461
sg8
F24.0
sg9
F0.1218274111675127
ssg12
(dp3025
g7
F0.019769357495881382
sg8
F72.0
sg9
F0.36548223350253806
ssg14
(dp3026
g7
F0.0008237232289950577
sg8
F3.0
sg9
F0.015228426395939087
ssg16
(dp3027
g7
F0.006589785831960461
sg8
F24.0
sg9
F0.1218274111675127
sssg18
I0
sg19
I197
sg20
I72
sg21
I3642
ssS'Mindsycle'
p3028
(dp3029
g3
(dp3030
g5
(dp3031
g7
F0.004966300106420717
sg8
F14.0
sg9
F0.07954545454545454
ssg10
(dp3032
g7
F0.0031926214969847464
sg8
F9.0
sg9
F0.05113636363636364
ssg12
(dp3033
g7
F0.011351543100390209
sg8
F32.0
sg9
F0.18181818181818182
ssg14
(dp3034
g7
F0.0017736786094359701
sg8
F5.0
sg9
F0.028409090909090908
ssg16
(dp3035
g7
F0.001418942887548776
sg8
F4.0
sg9
F0.022727272727272728
sssg18
I0
sg19
I176
sg20
I32
sg21
I2819
ssS'macegem'
p3036
(dp3037
g3
(dp3038
g12
(dp3039
g7
F0.0
sg8
F0.0
sg9
F0.0
sssg18
I0
sg19
I9
sg20
I0
sg21
I139
ssS'UNEP_FI'
p3040
(dp3041
g3
(dp3042
g5
(dp3043
g7
F0.007323568575233023
sg8
F33.0
sg9
F0.1683673469387755
ssg10
(dp3044
g7
F0.023968042609853527
sg8
F108.0
sg9
F0.5510204081632653
ssg27
(dp3045
g7
F0.009098979138925876
sg8
F41.0
sg9
F0.20918367346938777
ssg14
(dp3046
g7
F0.02108300044385264
sg8
F95.0
sg9
F0.4846938775510204
ssg16
(dp3047
g7
F0.009098979138925876
sg8
F41.0
sg9
F0.20918367346938777
ssg12
(dp3048
g7
F0.07057256990679095
sg8
F318.0
sg9
F1.6224489795918366
sssg18
I0
sg19
I196
sg20
I318
sg21
I4506
ssS'giorgosvarzelio'
p3049
(dp3050
g3
(dp3051
g12
(dp3052
g7
F0.0
sg8
F0.0
sg9
F0.0
sssg18
I0
sg19
I3
sg20
I0
sg21
I27
ss.