(dp0
S'durability'
p1
(lp2
S'0'
p3
asS'process'
p4
(lp5
S'1'
p6
asS'climate change'
p7
(lp8
g3
aS'2'
p9
asS'social relation*'
p10
(lp11
g3
aS'4'
p12
asS'progress'
p13
(lp14
g6
asS'technology'
p15
(lp16
g6
asS'reuse'
p17
(lp18
g3
asS'social cause*'
p19
(lp20
g3
ag12
asS'co-funding'
p21
(lp22
g6
aS'3'
p23
asS'knowledge'
p24
(lp25
g6
asS'co-validation*'
p26
(lp27
g6
asS'circular economy'
p28
(lp29
g3
ag6
ag9
ag23
ag12
asS'climate finance'
p30
(lp31
g3
ag9
ag23
asS'no waste'
p32
(lp33
g3
ag9
asS'nature*'
p34
(lp35
g3
ag9
asS'invent*'
p36
(lp37
g6
asS'lowcarbon'
p38
(lp39
g3
ag9
ag12
asS'idea*'
p40
(lp41
g6
asS're-use'
p42
(lp43
g3
ag9
ag12
asS'local'
p44
(lp45
g3
asS'green*'
p46
(lp47
g3
ag9
asS're-cycl*'
p48
(lp49
g3
ag9
ag12
asS'technical cause'
p50
(lp51
g6
asS'finance'
p52
(lp53
g23
asS'environmental cause'
p54
(lp55
g3
ag9
asS'self sufficien*'
p56
(lp57
g3
asS'social'
p58
(lp59
g3
ag12
asS'climate*'
p60
(lp61
g3
ag9
asS'green finance'
p62
(lp63
g3
ag9
ag23
ag12
asS'sustainability'
p64
(lp65
g3
ag12
asS'innovation*'
p66
(lp67
g6
asS'environment*'
p68
(lp69
g3
ag9
asS'fintech'
p70
(lp71
g6
ag23
asS'co-delivery*'
p72
(lp73
g3
ag6
asS'repurpose*'
p74
(lp75
g3
asS'climate'
p76
(lp77
g3
ag9
asS'user-driven'
p78
(lp79
g3
asS'tool*'
p80
(lp81
g6
asS'creat*'
p82
(lp83
g6
asS'impact finance'
p84
(lp85
g3
ag23
ag12
asS'social responsibility'
p86
(lp87
g3
ag12
asS'network-based society '
p88
(lp89
g3
ag6
ag12
asS'planet'
p90
(lp91
g3
ag9
asS'functional*'
p92
(lp93
g6
asS'recycl*'
p94
(lp95
g3
ag9
ag12
asS'repair*'
p96
(lp97
g3
asS'sustainab*'
p98
(lp99
g3
ag9
ag12
asS'social impact*'
p100
(lp101
g3
ag12
as.