(dp0
S'1'
p1
(dp2
S'content'
p3
(lp4
S'process'
p5
aS'progress'
p6
aS'technology'
p7
aS'co-funding'
p8
aS'knowledge'
p9
aS'co-validation*'
p10
aS'circular economy'
p11
aS'invent*'
p12
aS'idea*'
p13
aS'technical cause'
p14
aS'innovation*'
p15
aS'fintech'
p16
aS'co-delivery*'
p17
aS'tool*'
p18
aS'creat*'
p19
aS'network-based society '
p20
aS'functional*'
p21
asS'name'
p22
S'innovation'
p23
ssS'0'
p24
(dp25
g3
(lp26
S'durability'
p27
aS'climate change'
p28
aS'social relation*'
p29
aS'reuse'
p30
aS'social cause*'
p31
ag11
aS'climate finance'
p32
aS'no waste'
p33
aS'nature*'
p34
aS'lowcarbon'
p35
aS're-use'
p36
aS'local'
p37
aS'green*'
p38
aS're-cycl*'
p39
aS'environmental cause'
p40
aS'self sufficien*'
p41
aS'social'
p42
aS'climate*'
p43
aS'green finance'
p44
aS'sustainability'
p45
aS'environment*'
p46
ag17
aS'repurpose*'
p47
aS'climate'
p48
aS'user-driven'
p49
aS'impact finance'
p50
aS'social responsibility'
p51
ag20
aS'planet'
p52
aS'recycl*'
p53
aS'repair*'
p54
aS'sustainab*'
p55
aS'social impact*'
p56
asg22
S'sustainability'
p57
ssS'3'
p58
(dp59
g3
(lp60
g8
ag11
ag32
aS'finance'
p61
ag44
ag16
ag50
asg22
S'finance'
p62
ssS'2'
p63
(dp64
g3
(lp65
g28
ag11
ag32
ag33
ag34
ag35
ag36
ag38
ag39
ag40
ag43
ag44
ag46
ag48
ag52
ag53
ag55
asg22
S'climate'
p66
ssS'4'
p67
(dp68
g3
(lp69
g29
ag31
ag11
ag35
ag36
ag39
ag42
ag44
ag45
ag50
ag51
ag20
ag53
ag55
ag56
asg22
S'socialimpact'
p70
ss.